
main.elf:     file format elf32-littleriscv


Disassembly of section .text:

00000000 <entry>:
       0:	ff010113          	addi	sp,sp,-16
       4:	00112623          	sw	ra,12(sp)
       8:	00812423          	sw	s0,8(sp)
       c:	01010413          	addi	s0,sp,16
      10:	00120137          	lui	sp,0x120
      14:	ffc10113          	addi	sp,sp,-4 # 11fffc <_end+0x1f7fc>
      18:	018000ef          	jal	ra,30 <main>
      1c:	00000013          	nop
      20:	00c12083          	lw	ra,12(sp)
      24:	00812403          	lw	s0,8(sp)
      28:	01010113          	addi	sp,sp,16
      2c:	00008067          	ret

00000030 <main>:
      30:	ff010113          	addi	sp,sp,-16
      34:	00112623          	sw	ra,12(sp)
      38:	00812423          	sw	s0,8(sp)
      3c:	01010413          	addi	s0,sp,16
      40:	01c000ef          	jal	ra,5c <vga_init>
      44:	00000793          	li	a5,0
      48:	00078513          	mv	a0,a5
      4c:	00c12083          	lw	ra,12(sp)
      50:	00812403          	lw	s0,8(sp)
      54:	01010113          	addi	sp,sp,16
      58:	00008067          	ret

0000005c <vga_init>:
      5c:	fe010113          	addi	sp,sp,-32
      60:	00812e23          	sw	s0,28(sp)
      64:	02010413          	addi	s0,sp,32
      68:	00100797          	auipc	a5,0x100
      6c:	01878793          	addi	a5,a5,24 # 100080 <vga_line>
      70:	0007a023          	sw	zero,0(a5)
      74:	00100797          	auipc	a5,0x100
      78:	01078793          	addi	a5,a5,16 # 100084 <vga_ch>
      7c:	0007a023          	sw	zero,0(a5)
      80:	fe042623          	sw	zero,-20(s0)
      84:	0280006f          	j	ac <vga_init+0x50>
      88:	00100797          	auipc	a5,0x100
      8c:	f9878793          	addi	a5,a5,-104 # 100020 <vga_start>
      90:	0007a703          	lw	a4,0(a5)
      94:	fec42783          	lw	a5,-20(s0)
      98:	00f707b3          	add	a5,a4,a5
      9c:	00078023          	sb	zero,0(a5)
      a0:	fec42783          	lw	a5,-20(s0)
      a4:	00178793          	addi	a5,a5,1
      a8:	fef42623          	sw	a5,-20(s0)
      ac:	fec42703          	lw	a4,-20(s0)
      b0:	000017b7          	lui	a5,0x1
      b4:	95f78793          	addi	a5,a5,-1697 # 95f <strcmp+0xbf>
      b8:	fce7d8e3          	bge	a5,a4,88 <vga_init+0x2c>
      bc:	00100797          	auipc	a5,0x100
      c0:	f6478793          	addi	a5,a5,-156 # 100020 <vga_start>
      c4:	0007a783          	lw	a5,0(a5)
      c8:	06e00713          	li	a4,110
      cc:	00e78023          	sb	a4,0(a5)
      d0:	00100797          	auipc	a5,0x100
      d4:	f5078793          	addi	a5,a5,-176 # 100020 <vga_start>
      d8:	0007a783          	lw	a5,0(a5)
      dc:	00178793          	addi	a5,a5,1
      e0:	07400713          	li	a4,116
      e4:	00e78023          	sb	a4,0(a5)
      e8:	00100797          	auipc	a5,0x100
      ec:	f3878793          	addi	a5,a5,-200 # 100020 <vga_start>
      f0:	0007a783          	lw	a5,0(a5)
      f4:	00278793          	addi	a5,a5,2
      f8:	06500713          	li	a4,101
      fc:	00e78023          	sb	a4,0(a5)
     100:	00100797          	auipc	a5,0x100
     104:	f2078793          	addi	a5,a5,-224 # 100020 <vga_start>
     108:	0007a783          	lw	a5,0(a5)
     10c:	00378793          	addi	a5,a5,3
     110:	07200713          	li	a4,114
     114:	00e78023          	sb	a4,0(a5)
     118:	00100797          	auipc	a5,0x100
     11c:	f0878793          	addi	a5,a5,-248 # 100020 <vga_start>
     120:	0007a783          	lw	a5,0(a5)
     124:	00478793          	addi	a5,a5,4
     128:	06d00713          	li	a4,109
     12c:	00e78023          	sb	a4,0(a5)
     130:	00100797          	auipc	a5,0x100
     134:	ef078793          	addi	a5,a5,-272 # 100020 <vga_start>
     138:	0007a783          	lw	a5,0(a5)
     13c:	00578793          	addi	a5,a5,5
     140:	03e00713          	li	a4,62
     144:	00e78023          	sb	a4,0(a5)
     148:	00100797          	auipc	a5,0x100
     14c:	f3c78793          	addi	a5,a5,-196 # 100084 <vga_ch>
     150:	00600713          	li	a4,6
     154:	00e7a023          	sw	a4,0(a5)
     158:	00000013          	nop
     15c:	01c12403          	lw	s0,28(sp)
     160:	02010113          	addi	sp,sp,32
     164:	00008067          	ret

00000168 <vga_line_add>:
     168:	ff010113          	addi	sp,sp,-16
     16c:	00812623          	sw	s0,12(sp)
     170:	01010413          	addi	s0,sp,16
     174:	00100797          	auipc	a5,0x100
     178:	f0c78793          	addi	a5,a5,-244 # 100080 <vga_line>
     17c:	0007a703          	lw	a4,0(a5)
     180:	01c00793          	li	a5,28
     184:	00e7cc63          	blt	a5,a4,19c <vga_line_add+0x34>
     188:	00100797          	auipc	a5,0x100
     18c:	ef878793          	addi	a5,a5,-264 # 100080 <vga_line>
     190:	0007a783          	lw	a5,0(a5)
     194:	00178793          	addi	a5,a5,1
     198:	0080006f          	j	1a0 <vga_line_add+0x38>
     19c:	00000793          	li	a5,0
     1a0:	00100717          	auipc	a4,0x100
     1a4:	ee070713          	addi	a4,a4,-288 # 100080 <vga_line>
     1a8:	00f72023          	sw	a5,0(a4)
     1ac:	00100797          	auipc	a5,0x100
     1b0:	ed878793          	addi	a5,a5,-296 # 100084 <vga_ch>
     1b4:	00600713          	li	a4,6
     1b8:	00e7a023          	sw	a4,0(a5)
     1bc:	00100797          	auipc	a5,0x100
     1c0:	e6478793          	addi	a5,a5,-412 # 100020 <vga_start>
     1c4:	0007a683          	lw	a3,0(a5)
     1c8:	00100797          	auipc	a5,0x100
     1cc:	eb878793          	addi	a5,a5,-328 # 100080 <vga_line>
     1d0:	0007a703          	lw	a4,0(a5)
     1d4:	00070793          	mv	a5,a4
     1d8:	00279793          	slli	a5,a5,0x2
     1dc:	00e787b3          	add	a5,a5,a4
     1e0:	00479793          	slli	a5,a5,0x4
     1e4:	00f687b3          	add	a5,a3,a5
     1e8:	06e00713          	li	a4,110
     1ec:	00e78023          	sb	a4,0(a5)
     1f0:	00100797          	auipc	a5,0x100
     1f4:	e3078793          	addi	a5,a5,-464 # 100020 <vga_start>
     1f8:	0007a683          	lw	a3,0(a5)
     1fc:	00100797          	auipc	a5,0x100
     200:	e8478793          	addi	a5,a5,-380 # 100080 <vga_line>
     204:	0007a703          	lw	a4,0(a5)
     208:	00070793          	mv	a5,a4
     20c:	00279793          	slli	a5,a5,0x2
     210:	00e787b3          	add	a5,a5,a4
     214:	00479793          	slli	a5,a5,0x4
     218:	00178793          	addi	a5,a5,1
     21c:	00f687b3          	add	a5,a3,a5
     220:	07400713          	li	a4,116
     224:	00e78023          	sb	a4,0(a5)
     228:	00100797          	auipc	a5,0x100
     22c:	df878793          	addi	a5,a5,-520 # 100020 <vga_start>
     230:	0007a683          	lw	a3,0(a5)
     234:	00100797          	auipc	a5,0x100
     238:	e4c78793          	addi	a5,a5,-436 # 100080 <vga_line>
     23c:	0007a703          	lw	a4,0(a5)
     240:	00070793          	mv	a5,a4
     244:	00279793          	slli	a5,a5,0x2
     248:	00e787b3          	add	a5,a5,a4
     24c:	00479793          	slli	a5,a5,0x4
     250:	00278793          	addi	a5,a5,2
     254:	00f687b3          	add	a5,a3,a5
     258:	06500713          	li	a4,101
     25c:	00e78023          	sb	a4,0(a5)
     260:	00100797          	auipc	a5,0x100
     264:	dc078793          	addi	a5,a5,-576 # 100020 <vga_start>
     268:	0007a683          	lw	a3,0(a5)
     26c:	00100797          	auipc	a5,0x100
     270:	e1478793          	addi	a5,a5,-492 # 100080 <vga_line>
     274:	0007a703          	lw	a4,0(a5)
     278:	00070793          	mv	a5,a4
     27c:	00279793          	slli	a5,a5,0x2
     280:	00e787b3          	add	a5,a5,a4
     284:	00479793          	slli	a5,a5,0x4
     288:	00378793          	addi	a5,a5,3
     28c:	00f687b3          	add	a5,a3,a5
     290:	07200713          	li	a4,114
     294:	00e78023          	sb	a4,0(a5)
     298:	00100797          	auipc	a5,0x100
     29c:	d8878793          	addi	a5,a5,-632 # 100020 <vga_start>
     2a0:	0007a683          	lw	a3,0(a5)
     2a4:	00100797          	auipc	a5,0x100
     2a8:	ddc78793          	addi	a5,a5,-548 # 100080 <vga_line>
     2ac:	0007a703          	lw	a4,0(a5)
     2b0:	00070793          	mv	a5,a4
     2b4:	00279793          	slli	a5,a5,0x2
     2b8:	00e787b3          	add	a5,a5,a4
     2bc:	00479793          	slli	a5,a5,0x4
     2c0:	00478793          	addi	a5,a5,4
     2c4:	00f687b3          	add	a5,a3,a5
     2c8:	06d00713          	li	a4,109
     2cc:	00e78023          	sb	a4,0(a5)
     2d0:	00100797          	auipc	a5,0x100
     2d4:	d5078793          	addi	a5,a5,-688 # 100020 <vga_start>
     2d8:	0007a683          	lw	a3,0(a5)
     2dc:	00100797          	auipc	a5,0x100
     2e0:	da478793          	addi	a5,a5,-604 # 100080 <vga_line>
     2e4:	0007a703          	lw	a4,0(a5)
     2e8:	00070793          	mv	a5,a4
     2ec:	00279793          	slli	a5,a5,0x2
     2f0:	00e787b3          	add	a5,a5,a4
     2f4:	00479793          	slli	a5,a5,0x4
     2f8:	00578793          	addi	a5,a5,5
     2fc:	00f687b3          	add	a5,a3,a5
     300:	03e00713          	li	a4,62
     304:	00e78023          	sb	a4,0(a5)
     308:	00000013          	nop
     30c:	00c12403          	lw	s0,12(sp)
     310:	01010113          	addi	sp,sp,16
     314:	00008067          	ret

00000318 <putch>:
     318:	fe010113          	addi	sp,sp,-32
     31c:	00812e23          	sw	s0,28(sp)
     320:	02010413          	addi	s0,sp,32
     324:	00050793          	mv	a5,a0
     328:	fef407a3          	sb	a5,-17(s0)
     32c:	fef44703          	lbu	a4,-17(s0)
     330:	00800793          	li	a5,8
     334:	06f71e63          	bne	a4,a5,3b0 <putch+0x98>
     338:	00100797          	auipc	a5,0x100
     33c:	d4c78793          	addi	a5,a5,-692 # 100084 <vga_ch>
     340:	0007a703          	lw	a4,0(a5)
     344:	00600793          	li	a5,6
     348:	2ce7d863          	bge	a5,a4,618 <putch+0x300>
     34c:	00100797          	auipc	a5,0x100
     350:	d3878793          	addi	a5,a5,-712 # 100084 <vga_ch>
     354:	0007a783          	lw	a5,0(a5)
     358:	fff78713          	addi	a4,a5,-1
     35c:	00100797          	auipc	a5,0x100
     360:	d2878793          	addi	a5,a5,-728 # 100084 <vga_ch>
     364:	00e7a023          	sw	a4,0(a5)
     368:	00100797          	auipc	a5,0x100
     36c:	cb878793          	addi	a5,a5,-840 # 100020 <vga_start>
     370:	0007a683          	lw	a3,0(a5)
     374:	00100797          	auipc	a5,0x100
     378:	d0c78793          	addi	a5,a5,-756 # 100080 <vga_line>
     37c:	0007a703          	lw	a4,0(a5)
     380:	00070793          	mv	a5,a4
     384:	00279793          	slli	a5,a5,0x2
     388:	00e787b3          	add	a5,a5,a4
     38c:	00479793          	slli	a5,a5,0x4
     390:	00078713          	mv	a4,a5
     394:	00100797          	auipc	a5,0x100
     398:	cf078793          	addi	a5,a5,-784 # 100084 <vga_ch>
     39c:	0007a783          	lw	a5,0(a5)
     3a0:	00f707b3          	add	a5,a4,a5
     3a4:	00f687b3          	add	a5,a3,a5
     3a8:	00078023          	sb	zero,0(a5)
     3ac:	26c0006f          	j	618 <putch+0x300>
     3b0:	fef44703          	lbu	a4,-17(s0)
     3b4:	00a00793          	li	a5,10
     3b8:	18f71e63          	bne	a4,a5,554 <putch+0x23c>
     3bc:	00100797          	auipc	a5,0x100
     3c0:	cc478793          	addi	a5,a5,-828 # 100080 <vga_line>
     3c4:	0007a703          	lw	a4,0(a5)
     3c8:	01c00793          	li	a5,28
     3cc:	00e7cc63          	blt	a5,a4,3e4 <putch+0xcc>
     3d0:	00100797          	auipc	a5,0x100
     3d4:	cb078793          	addi	a5,a5,-848 # 100080 <vga_line>
     3d8:	0007a783          	lw	a5,0(a5)
     3dc:	00178793          	addi	a5,a5,1
     3e0:	0080006f          	j	3e8 <putch+0xd0>
     3e4:	00000793          	li	a5,0
     3e8:	00100717          	auipc	a4,0x100
     3ec:	c9870713          	addi	a4,a4,-872 # 100080 <vga_line>
     3f0:	00f72023          	sw	a5,0(a4)
     3f4:	00100797          	auipc	a5,0x100
     3f8:	c9078793          	addi	a5,a5,-880 # 100084 <vga_ch>
     3fc:	00600713          	li	a4,6
     400:	00e7a023          	sw	a4,0(a5)
     404:	00100797          	auipc	a5,0x100
     408:	c1c78793          	addi	a5,a5,-996 # 100020 <vga_start>
     40c:	0007a683          	lw	a3,0(a5)
     410:	00100797          	auipc	a5,0x100
     414:	c7078793          	addi	a5,a5,-912 # 100080 <vga_line>
     418:	0007a703          	lw	a4,0(a5)
     41c:	00070793          	mv	a5,a4
     420:	00279793          	slli	a5,a5,0x2
     424:	00e787b3          	add	a5,a5,a4
     428:	00479793          	slli	a5,a5,0x4
     42c:	00f687b3          	add	a5,a3,a5
     430:	06e00713          	li	a4,110
     434:	00e78023          	sb	a4,0(a5)
     438:	00100797          	auipc	a5,0x100
     43c:	be878793          	addi	a5,a5,-1048 # 100020 <vga_start>
     440:	0007a683          	lw	a3,0(a5)
     444:	00100797          	auipc	a5,0x100
     448:	c3c78793          	addi	a5,a5,-964 # 100080 <vga_line>
     44c:	0007a703          	lw	a4,0(a5)
     450:	00070793          	mv	a5,a4
     454:	00279793          	slli	a5,a5,0x2
     458:	00e787b3          	add	a5,a5,a4
     45c:	00479793          	slli	a5,a5,0x4
     460:	00178793          	addi	a5,a5,1
     464:	00f687b3          	add	a5,a3,a5
     468:	07400713          	li	a4,116
     46c:	00e78023          	sb	a4,0(a5)
     470:	00100797          	auipc	a5,0x100
     474:	bb078793          	addi	a5,a5,-1104 # 100020 <vga_start>
     478:	0007a683          	lw	a3,0(a5)
     47c:	00100797          	auipc	a5,0x100
     480:	c0478793          	addi	a5,a5,-1020 # 100080 <vga_line>
     484:	0007a703          	lw	a4,0(a5)
     488:	00070793          	mv	a5,a4
     48c:	00279793          	slli	a5,a5,0x2
     490:	00e787b3          	add	a5,a5,a4
     494:	00479793          	slli	a5,a5,0x4
     498:	00278793          	addi	a5,a5,2
     49c:	00f687b3          	add	a5,a3,a5
     4a0:	06500713          	li	a4,101
     4a4:	00e78023          	sb	a4,0(a5)
     4a8:	00100797          	auipc	a5,0x100
     4ac:	b7878793          	addi	a5,a5,-1160 # 100020 <vga_start>
     4b0:	0007a683          	lw	a3,0(a5)
     4b4:	00100797          	auipc	a5,0x100
     4b8:	bcc78793          	addi	a5,a5,-1076 # 100080 <vga_line>
     4bc:	0007a703          	lw	a4,0(a5)
     4c0:	00070793          	mv	a5,a4
     4c4:	00279793          	slli	a5,a5,0x2
     4c8:	00e787b3          	add	a5,a5,a4
     4cc:	00479793          	slli	a5,a5,0x4
     4d0:	00378793          	addi	a5,a5,3
     4d4:	00f687b3          	add	a5,a3,a5
     4d8:	07200713          	li	a4,114
     4dc:	00e78023          	sb	a4,0(a5)
     4e0:	00100797          	auipc	a5,0x100
     4e4:	b4078793          	addi	a5,a5,-1216 # 100020 <vga_start>
     4e8:	0007a683          	lw	a3,0(a5)
     4ec:	00100797          	auipc	a5,0x100
     4f0:	b9478793          	addi	a5,a5,-1132 # 100080 <vga_line>
     4f4:	0007a703          	lw	a4,0(a5)
     4f8:	00070793          	mv	a5,a4
     4fc:	00279793          	slli	a5,a5,0x2
     500:	00e787b3          	add	a5,a5,a4
     504:	00479793          	slli	a5,a5,0x4
     508:	00478793          	addi	a5,a5,4
     50c:	00f687b3          	add	a5,a3,a5
     510:	06d00713          	li	a4,109
     514:	00e78023          	sb	a4,0(a5)
     518:	00100797          	auipc	a5,0x100
     51c:	b0878793          	addi	a5,a5,-1272 # 100020 <vga_start>
     520:	0007a683          	lw	a3,0(a5)
     524:	00100797          	auipc	a5,0x100
     528:	b5c78793          	addi	a5,a5,-1188 # 100080 <vga_line>
     52c:	0007a703          	lw	a4,0(a5)
     530:	00070793          	mv	a5,a4
     534:	00279793          	slli	a5,a5,0x2
     538:	00e787b3          	add	a5,a5,a4
     53c:	00479793          	slli	a5,a5,0x4
     540:	00578793          	addi	a5,a5,5
     544:	00f687b3          	add	a5,a3,a5
     548:	03e00713          	li	a4,62
     54c:	00e78023          	sb	a4,0(a5)
     550:	0cc0006f          	j	61c <putch+0x304>
     554:	00100797          	auipc	a5,0x100
     558:	acc78793          	addi	a5,a5,-1332 # 100020 <vga_start>
     55c:	0007a683          	lw	a3,0(a5)
     560:	00100797          	auipc	a5,0x100
     564:	b2078793          	addi	a5,a5,-1248 # 100080 <vga_line>
     568:	0007a703          	lw	a4,0(a5)
     56c:	00070793          	mv	a5,a4
     570:	00279793          	slli	a5,a5,0x2
     574:	00e787b3          	add	a5,a5,a4
     578:	00479793          	slli	a5,a5,0x4
     57c:	00078713          	mv	a4,a5
     580:	00100797          	auipc	a5,0x100
     584:	b0478793          	addi	a5,a5,-1276 # 100084 <vga_ch>
     588:	0007a783          	lw	a5,0(a5)
     58c:	00f707b3          	add	a5,a4,a5
     590:	00f687b3          	add	a5,a3,a5
     594:	fef44703          	lbu	a4,-17(s0)
     598:	00e78023          	sb	a4,0(a5)
     59c:	00100797          	auipc	a5,0x100
     5a0:	ae878793          	addi	a5,a5,-1304 # 100084 <vga_ch>
     5a4:	0007a703          	lw	a4,0(a5)
     5a8:	04f00793          	li	a5,79
     5ac:	04f71663          	bne	a4,a5,5f8 <putch+0x2e0>
     5b0:	00100797          	auipc	a5,0x100
     5b4:	ad478793          	addi	a5,a5,-1324 # 100084 <vga_ch>
     5b8:	0007a023          	sw	zero,0(a5)
     5bc:	00100797          	auipc	a5,0x100
     5c0:	ac478793          	addi	a5,a5,-1340 # 100080 <vga_line>
     5c4:	0007a703          	lw	a4,0(a5)
     5c8:	01c00793          	li	a5,28
     5cc:	00e7cc63          	blt	a5,a4,5e4 <putch+0x2cc>
     5d0:	00100797          	auipc	a5,0x100
     5d4:	ab078793          	addi	a5,a5,-1360 # 100080 <vga_line>
     5d8:	0007a783          	lw	a5,0(a5)
     5dc:	00178793          	addi	a5,a5,1
     5e0:	0080006f          	j	5e8 <putch+0x2d0>
     5e4:	00000793          	li	a5,0
     5e8:	00100717          	auipc	a4,0x100
     5ec:	a9870713          	addi	a4,a4,-1384 # 100080 <vga_line>
     5f0:	00f72023          	sw	a5,0(a4)
     5f4:	0280006f          	j	61c <putch+0x304>
     5f8:	00100797          	auipc	a5,0x100
     5fc:	a8c78793          	addi	a5,a5,-1396 # 100084 <vga_ch>
     600:	0007a783          	lw	a5,0(a5)
     604:	00178713          	addi	a4,a5,1
     608:	00100797          	auipc	a5,0x100
     60c:	a7c78793          	addi	a5,a5,-1412 # 100084 <vga_ch>
     610:	00e7a023          	sw	a4,0(a5)
     614:	0080006f          	j	61c <putch+0x304>
     618:	00000013          	nop
     61c:	01c12403          	lw	s0,28(sp)
     620:	02010113          	addi	sp,sp,32
     624:	00008067          	ret

00000628 <putstr>:
     628:	fd010113          	addi	sp,sp,-48
     62c:	02112623          	sw	ra,44(sp)
     630:	02812423          	sw	s0,40(sp)
     634:	03010413          	addi	s0,sp,48
     638:	fca42e23          	sw	a0,-36(s0)
     63c:	fdc42783          	lw	a5,-36(s0)
     640:	fef42623          	sw	a5,-20(s0)
     644:	0200006f          	j	664 <putstr+0x3c>
     648:	fec42783          	lw	a5,-20(s0)
     64c:	0007c783          	lbu	a5,0(a5)
     650:	00078513          	mv	a0,a5
     654:	cc5ff0ef          	jal	ra,318 <putch>
     658:	fec42783          	lw	a5,-20(s0)
     65c:	00178793          	addi	a5,a5,1
     660:	fef42623          	sw	a5,-20(s0)
     664:	fec42783          	lw	a5,-20(s0)
     668:	0007c783          	lbu	a5,0(a5)
     66c:	fc079ee3          	bnez	a5,648 <putstr+0x20>
     670:	00000013          	nop
     674:	00000013          	nop
     678:	02c12083          	lw	ra,44(sp)
     67c:	02812403          	lw	s0,40(sp)
     680:	03010113          	addi	sp,sp,48
     684:	00008067          	ret

00000688 <getch>:
     688:	fe010113          	addi	sp,sp,-32
     68c:	00812e23          	sw	s0,28(sp)
     690:	02010413          	addi	s0,sp,32
     694:	00000013          	nop
     698:	00100797          	auipc	a5,0x100
     69c:	98c78793          	addi	a5,a5,-1652 # 100024 <key_tail>
     6a0:	0007a783          	lw	a5,0(a5)
     6a4:	0007c703          	lbu	a4,0(a5)
     6a8:	00100797          	auipc	a5,0x100
     6ac:	9e078793          	addi	a5,a5,-1568 # 100088 <head>
     6b0:	0007c783          	lbu	a5,0(a5)
     6b4:	fef702e3          	beq	a4,a5,698 <getch+0x10>
     6b8:	00100797          	auipc	a5,0x100
     6bc:	97078793          	addi	a5,a5,-1680 # 100028 <key_buf>
     6c0:	0007a783          	lw	a5,0(a5)
     6c4:	00100717          	auipc	a4,0x100
     6c8:	9c470713          	addi	a4,a4,-1596 # 100088 <head>
     6cc:	00074703          	lbu	a4,0(a4)
     6d0:	00e787b3          	add	a5,a5,a4
     6d4:	0007c783          	lbu	a5,0(a5)
     6d8:	fef407a3          	sb	a5,-17(s0)
     6dc:	fef44703          	lbu	a4,-17(s0)
     6e0:	00800793          	li	a5,8
     6e4:	02f71263          	bne	a4,a5,708 <getch+0x80>
     6e8:	00100797          	auipc	a5,0x100
     6ec:	9a478793          	addi	a5,a5,-1628 # 10008c <cnt>
     6f0:	0007a783          	lw	a5,0(a5)
     6f4:	fff78713          	addi	a4,a5,-1
     6f8:	00100797          	auipc	a5,0x100
     6fc:	99478793          	addi	a5,a5,-1644 # 10008c <cnt>
     700:	00e7a023          	sw	a4,0(a5)
     704:	06c0006f          	j	770 <getch+0xe8>
     708:	fef44703          	lbu	a4,-17(s0)
     70c:	00a00793          	li	a5,10
     710:	02f71263          	bne	a4,a5,734 <getch+0xac>
     714:	00100797          	auipc	a5,0x100
     718:	97878793          	addi	a5,a5,-1672 # 10008c <cnt>
     71c:	0007a783          	lw	a5,0(a5)
     720:	00100717          	auipc	a4,0x100
     724:	92070713          	addi	a4,a4,-1760 # 100040 <command>
     728:	00f707b3          	add	a5,a4,a5
     72c:	00078023          	sb	zero,0(a5)
     730:	0400006f          	j	770 <getch+0xe8>
     734:	00100797          	auipc	a5,0x100
     738:	95878793          	addi	a5,a5,-1704 # 10008c <cnt>
     73c:	0007a783          	lw	a5,0(a5)
     740:	00100717          	auipc	a4,0x100
     744:	90070713          	addi	a4,a4,-1792 # 100040 <command>
     748:	00f707b3          	add	a5,a4,a5
     74c:	fef44703          	lbu	a4,-17(s0)
     750:	00e78023          	sb	a4,0(a5)
     754:	00100797          	auipc	a5,0x100
     758:	93878793          	addi	a5,a5,-1736 # 10008c <cnt>
     75c:	0007a783          	lw	a5,0(a5)
     760:	00178713          	addi	a4,a5,1
     764:	00100797          	auipc	a5,0x100
     768:	92878793          	addi	a5,a5,-1752 # 10008c <cnt>
     76c:	00e7a023          	sw	a4,0(a5)
     770:	00100797          	auipc	a5,0x100
     774:	91878793          	addi	a5,a5,-1768 # 100088 <head>
     778:	0007c703          	lbu	a4,0(a5)
     77c:	01f00793          	li	a5,31
     780:	00f70c63          	beq	a4,a5,798 <getch+0x110>
     784:	00100797          	auipc	a5,0x100
     788:	8a078793          	addi	a5,a5,-1888 # 100024 <key_tail>
     78c:	0007a783          	lw	a5,0(a5)
     790:	0007c783          	lbu	a5,0(a5)
     794:	00079a63          	bnez	a5,7a8 <getch+0x120>
     798:	00100797          	auipc	a5,0x100
     79c:	8f078793          	addi	a5,a5,-1808 # 100088 <head>
     7a0:	00078023          	sb	zero,0(a5)
     7a4:	0240006f          	j	7c8 <getch+0x140>
     7a8:	00100797          	auipc	a5,0x100
     7ac:	8e078793          	addi	a5,a5,-1824 # 100088 <head>
     7b0:	0007c783          	lbu	a5,0(a5)
     7b4:	00178793          	addi	a5,a5,1
     7b8:	0ff7f713          	andi	a4,a5,255
     7bc:	00100797          	auipc	a5,0x100
     7c0:	8cc78793          	addi	a5,a5,-1844 # 100088 <head>
     7c4:	00e78023          	sb	a4,0(a5)
     7c8:	fef44783          	lbu	a5,-17(s0)
     7cc:	00078513          	mv	a0,a5
     7d0:	01c12403          	lw	s0,28(sp)
     7d4:	02010113          	addi	sp,sp,32
     7d8:	00008067          	ret

000007dc <putcom>:
     7dc:	fe010113          	addi	sp,sp,-32
     7e0:	00112e23          	sw	ra,28(sp)
     7e4:	00812c23          	sw	s0,24(sp)
     7e8:	02010413          	addi	s0,sp,32
     7ec:	00050793          	mv	a5,a0
     7f0:	fef407a3          	sb	a5,-17(s0)
     7f4:	fef44703          	lbu	a4,-17(s0)
     7f8:	00800793          	li	a5,8
     7fc:	00f71a63          	bne	a4,a5,810 <putcom+0x34>
     800:	fef44783          	lbu	a5,-17(s0)
     804:	00078513          	mv	a0,a5
     808:	b11ff0ef          	jal	ra,318 <putch>
     80c:	0800006f          	j	88c <putcom+0xb0>
     810:	fef44703          	lbu	a4,-17(s0)
     814:	00a00793          	li	a5,10
     818:	06f71463          	bne	a4,a5,880 <putcom+0xa4>
     81c:	00100797          	auipc	a5,0x100
     820:	87078793          	addi	a5,a5,-1936 # 10008c <cnt>
     824:	0007a783          	lw	a5,0(a5)
     828:	00100717          	auipc	a4,0x100
     82c:	81870713          	addi	a4,a4,-2024 # 100040 <command>
     830:	00f707b3          	add	a5,a4,a5
     834:	00078023          	sb	zero,0(a5)
     838:	00100797          	auipc	a5,0x100
     83c:	84c78793          	addi	a5,a5,-1972 # 100084 <vga_ch>
     840:	0007a023          	sw	zero,0(a5)
     844:	000ff517          	auipc	a0,0xff
     848:	7fc50513          	addi	a0,a0,2044 # 100040 <command>
     84c:	114000ef          	jal	ra,960 <deal_com>
     850:	919ff0ef          	jal	ra,168 <vga_line_add>
     854:	00100797          	auipc	a5,0x100
     858:	83878793          	addi	a5,a5,-1992 # 10008c <cnt>
     85c:	0007a023          	sw	zero,0(a5)
     860:	00100797          	auipc	a5,0x100
     864:	82c78793          	addi	a5,a5,-2004 # 10008c <cnt>
     868:	0007a783          	lw	a5,0(a5)
     86c:	000ff717          	auipc	a4,0xff
     870:	7d470713          	addi	a4,a4,2004 # 100040 <command>
     874:	00f707b3          	add	a5,a4,a5
     878:	00078023          	sb	zero,0(a5)
     87c:	0140006f          	j	890 <putcom+0xb4>
     880:	fef44783          	lbu	a5,-17(s0)
     884:	00078513          	mv	a0,a5
     888:	a91ff0ef          	jal	ra,318 <putch>
     88c:	00000013          	nop
     890:	01c12083          	lw	ra,28(sp)
     894:	01812403          	lw	s0,24(sp)
     898:	02010113          	addi	sp,sp,32
     89c:	00008067          	ret

000008a0 <strcmp>:
     8a0:	fe010113          	addi	sp,sp,-32
     8a4:	00812e23          	sw	s0,28(sp)
     8a8:	02010413          	addi	s0,sp,32
     8ac:	fea42623          	sw	a0,-20(s0)
     8b0:	feb42423          	sw	a1,-24(s0)
     8b4:	0580006f          	j	90c <strcmp+0x6c>
     8b8:	fec42783          	lw	a5,-20(s0)
     8bc:	0007c703          	lbu	a4,0(a5)
     8c0:	fe842783          	lw	a5,-24(s0)
     8c4:	0007c783          	lbu	a5,0(a5)
     8c8:	02f71063          	bne	a4,a5,8e8 <strcmp+0x48>
     8cc:	fec42783          	lw	a5,-20(s0)
     8d0:	00178793          	addi	a5,a5,1
     8d4:	fef42623          	sw	a5,-20(s0)
     8d8:	fe842783          	lw	a5,-24(s0)
     8dc:	00178793          	addi	a5,a5,1
     8e0:	fef42423          	sw	a5,-24(s0)
     8e4:	0280006f          	j	90c <strcmp+0x6c>
     8e8:	fec42783          	lw	a5,-20(s0)
     8ec:	0007c703          	lbu	a4,0(a5)
     8f0:	fe842783          	lw	a5,-24(s0)
     8f4:	0007c783          	lbu	a5,0(a5)
     8f8:	00f77663          	bgeu	a4,a5,904 <strcmp+0x64>
     8fc:	fff00793          	li	a5,-1
     900:	0500006f          	j	950 <strcmp+0xb0>
     904:	00100793          	li	a5,1
     908:	0480006f          	j	950 <strcmp+0xb0>
     90c:	fec42783          	lw	a5,-20(s0)
     910:	0007c783          	lbu	a5,0(a5)
     914:	00078863          	beqz	a5,924 <strcmp+0x84>
     918:	fe842783          	lw	a5,-24(s0)
     91c:	0007c783          	lbu	a5,0(a5)
     920:	f8079ce3          	bnez	a5,8b8 <strcmp+0x18>
     924:	fec42783          	lw	a5,-20(s0)
     928:	0007c783          	lbu	a5,0(a5)
     92c:	02079063          	bnez	a5,94c <strcmp+0xac>
     930:	fe842783          	lw	a5,-24(s0)
     934:	0007c783          	lbu	a5,0(a5)
     938:	00079663          	bnez	a5,944 <strcmp+0xa4>
     93c:	00000793          	li	a5,0
     940:	0100006f          	j	950 <strcmp+0xb0>
     944:	fff00793          	li	a5,-1
     948:	0080006f          	j	950 <strcmp+0xb0>
     94c:	00100793          	li	a5,1
     950:	00078513          	mv	a0,a5
     954:	01c12403          	lw	s0,28(sp)
     958:	02010113          	addi	sp,sp,32
     95c:	00008067          	ret

00000960 <deal_com>:
     960:	fe010113          	addi	sp,sp,-32
     964:	00112e23          	sw	ra,28(sp)
     968:	00812c23          	sw	s0,24(sp)
     96c:	02010413          	addi	s0,sp,32
     970:	fea42623          	sw	a0,-20(s0)
     974:	fec42583          	lw	a1,-20(s0)
     978:	000ff517          	auipc	a0,0xff
     97c:	6b450513          	addi	a0,a0,1716 # 10002c <comhello>
     980:	f21ff0ef          	jal	ra,8a0 <strcmp>
     984:	00050793          	mv	a5,a0
     988:	00079a63          	bnez	a5,99c <deal_com+0x3c>
     98c:	000ff517          	auipc	a0,0xff
     990:	68450513          	addi	a0,a0,1668 # 100010 <hellofun>
     994:	c95ff0ef          	jal	ra,628 <putstr>
     998:	0280006f          	j	9c0 <deal_com+0x60>
     99c:	fec42583          	lw	a1,-20(s0)
     9a0:	000ff517          	auipc	a0,0xff
     9a4:	69450513          	addi	a0,a0,1684 # 100034 <comclear>
     9a8:	ef9ff0ef          	jal	ra,8a0 <strcmp>
     9ac:	00050793          	mv	a5,a0
     9b0:	00079663          	bnez	a5,9bc <deal_com+0x5c>
     9b4:	ea8ff0ef          	jal	ra,5c <vga_init>
     9b8:	0080006f          	j	9c0 <deal_com+0x60>
     9bc:	00000013          	nop
     9c0:	01c12083          	lw	ra,28(sp)
     9c4:	01812403          	lw	s0,24(sp)
     9c8:	02010113          	addi	sp,sp,32
     9cc:	00008067          	ret

000009d0 <__mulsi3>:
     9d0:	fd010113          	addi	sp,sp,-48
     9d4:	02812623          	sw	s0,44(sp)
     9d8:	03010413          	addi	s0,sp,48
     9dc:	fca42e23          	sw	a0,-36(s0)
     9e0:	fcb42c23          	sw	a1,-40(s0)
     9e4:	fe042623          	sw	zero,-20(s0)
     9e8:	0380006f          	j	a20 <__mulsi3+0x50>
     9ec:	fdc42783          	lw	a5,-36(s0)
     9f0:	0017f793          	andi	a5,a5,1
     9f4:	00078a63          	beqz	a5,a08 <__mulsi3+0x38>
     9f8:	fec42703          	lw	a4,-20(s0)
     9fc:	fd842783          	lw	a5,-40(s0)
     a00:	00f707b3          	add	a5,a4,a5
     a04:	fef42623          	sw	a5,-20(s0)
     a08:	fdc42783          	lw	a5,-36(s0)
     a0c:	0017d793          	srli	a5,a5,0x1
     a10:	fcf42e23          	sw	a5,-36(s0)
     a14:	fd842783          	lw	a5,-40(s0)
     a18:	00179793          	slli	a5,a5,0x1
     a1c:	fcf42c23          	sw	a5,-40(s0)
     a20:	fdc42783          	lw	a5,-36(s0)
     a24:	fc0794e3          	bnez	a5,9ec <__mulsi3+0x1c>
     a28:	fec42783          	lw	a5,-20(s0)
     a2c:	00078513          	mv	a0,a5
     a30:	02c12403          	lw	s0,44(sp)
     a34:	03010113          	addi	sp,sp,48
     a38:	00008067          	ret

00000a3c <__modsi3>:
     a3c:	fd010113          	addi	sp,sp,-48
     a40:	02812623          	sw	s0,44(sp)
     a44:	03010413          	addi	s0,sp,48
     a48:	fca42e23          	sw	a0,-36(s0)
     a4c:	fcb42c23          	sw	a1,-40(s0)
     a50:	00100793          	li	a5,1
     a54:	fef42623          	sw	a5,-20(s0)
     a58:	fe042423          	sw	zero,-24(s0)
     a5c:	01c0006f          	j	a78 <__modsi3+0x3c>
     a60:	fd842783          	lw	a5,-40(s0)
     a64:	00179793          	slli	a5,a5,0x1
     a68:	fcf42c23          	sw	a5,-40(s0)
     a6c:	fec42783          	lw	a5,-20(s0)
     a70:	00179793          	slli	a5,a5,0x1
     a74:	fef42623          	sw	a5,-20(s0)
     a78:	fd842703          	lw	a4,-40(s0)
     a7c:	fdc42783          	lw	a5,-36(s0)
     a80:	04f75e63          	bge	a4,a5,adc <__modsi3+0xa0>
     a84:	fec42783          	lw	a5,-20(s0)
     a88:	04078a63          	beqz	a5,adc <__modsi3+0xa0>
     a8c:	fd842783          	lw	a5,-40(s0)
     a90:	fc07d8e3          	bgez	a5,a60 <__modsi3+0x24>
     a94:	0480006f          	j	adc <__modsi3+0xa0>
     a98:	fdc42703          	lw	a4,-36(s0)
     a9c:	fd842783          	lw	a5,-40(s0)
     aa0:	02f74263          	blt	a4,a5,ac4 <__modsi3+0x88>
     aa4:	fdc42703          	lw	a4,-36(s0)
     aa8:	fd842783          	lw	a5,-40(s0)
     aac:	40f707b3          	sub	a5,a4,a5
     ab0:	fcf42e23          	sw	a5,-36(s0)
     ab4:	fe842703          	lw	a4,-24(s0)
     ab8:	fec42783          	lw	a5,-20(s0)
     abc:	00f767b3          	or	a5,a4,a5
     ac0:	fef42423          	sw	a5,-24(s0)
     ac4:	fec42783          	lw	a5,-20(s0)
     ac8:	4017d793          	srai	a5,a5,0x1
     acc:	fef42623          	sw	a5,-20(s0)
     ad0:	fd842783          	lw	a5,-40(s0)
     ad4:	4017d793          	srai	a5,a5,0x1
     ad8:	fcf42c23          	sw	a5,-40(s0)
     adc:	fec42783          	lw	a5,-20(s0)
     ae0:	fa079ce3          	bnez	a5,a98 <__modsi3+0x5c>
     ae4:	fdc42783          	lw	a5,-36(s0)
     ae8:	00078513          	mv	a0,a5
     aec:	02c12403          	lw	s0,44(sp)
     af0:	03010113          	addi	sp,sp,48
     af4:	00008067          	ret

00000af8 <__divsi3>:
     af8:	fd010113          	addi	sp,sp,-48
     afc:	02812623          	sw	s0,44(sp)
     b00:	03010413          	addi	s0,sp,48
     b04:	fca42e23          	sw	a0,-36(s0)
     b08:	fcb42c23          	sw	a1,-40(s0)
     b0c:	00100793          	li	a5,1
     b10:	fef42623          	sw	a5,-20(s0)
     b14:	fe042423          	sw	zero,-24(s0)
     b18:	01c0006f          	j	b34 <__divsi3+0x3c>
     b1c:	fd842783          	lw	a5,-40(s0)
     b20:	00179793          	slli	a5,a5,0x1
     b24:	fcf42c23          	sw	a5,-40(s0)
     b28:	fec42783          	lw	a5,-20(s0)
     b2c:	00179793          	slli	a5,a5,0x1
     b30:	fef42623          	sw	a5,-20(s0)
     b34:	fd842703          	lw	a4,-40(s0)
     b38:	fdc42783          	lw	a5,-36(s0)
     b3c:	04f75e63          	bge	a4,a5,b98 <__divsi3+0xa0>
     b40:	fec42783          	lw	a5,-20(s0)
     b44:	04078a63          	beqz	a5,b98 <__divsi3+0xa0>
     b48:	fd842783          	lw	a5,-40(s0)
     b4c:	fc07d8e3          	bgez	a5,b1c <__divsi3+0x24>
     b50:	0480006f          	j	b98 <__divsi3+0xa0>
     b54:	fdc42703          	lw	a4,-36(s0)
     b58:	fd842783          	lw	a5,-40(s0)
     b5c:	02f74263          	blt	a4,a5,b80 <__divsi3+0x88>
     b60:	fdc42703          	lw	a4,-36(s0)
     b64:	fd842783          	lw	a5,-40(s0)
     b68:	40f707b3          	sub	a5,a4,a5
     b6c:	fcf42e23          	sw	a5,-36(s0)
     b70:	fe842703          	lw	a4,-24(s0)
     b74:	fec42783          	lw	a5,-20(s0)
     b78:	00f767b3          	or	a5,a4,a5
     b7c:	fef42423          	sw	a5,-24(s0)
     b80:	fec42783          	lw	a5,-20(s0)
     b84:	4017d793          	srai	a5,a5,0x1
     b88:	fef42623          	sw	a5,-20(s0)
     b8c:	fd842783          	lw	a5,-40(s0)
     b90:	4017d793          	srai	a5,a5,0x1
     b94:	fcf42c23          	sw	a5,-40(s0)
     b98:	fec42783          	lw	a5,-20(s0)
     b9c:	fa079ce3          	bnez	a5,b54 <__divsi3+0x5c>
     ba0:	fe842783          	lw	a5,-24(s0)
     ba4:	00078513          	mv	a0,a5
     ba8:	02c12403          	lw	s0,44(sp)
     bac:	03010113          	addi	sp,sp,48
     bb0:	00008067          	ret

00000bb4 <__umodsi3>:
     bb4:	fd010113          	addi	sp,sp,-48
     bb8:	02812623          	sw	s0,44(sp)
     bbc:	03010413          	addi	s0,sp,48
     bc0:	fca42e23          	sw	a0,-36(s0)
     bc4:	fcb42c23          	sw	a1,-40(s0)
     bc8:	00100793          	li	a5,1
     bcc:	fef42623          	sw	a5,-20(s0)
     bd0:	fe042423          	sw	zero,-24(s0)
     bd4:	01c0006f          	j	bf0 <__umodsi3+0x3c>
     bd8:	fd842783          	lw	a5,-40(s0)
     bdc:	00179793          	slli	a5,a5,0x1
     be0:	fcf42c23          	sw	a5,-40(s0)
     be4:	fec42783          	lw	a5,-20(s0)
     be8:	00179793          	slli	a5,a5,0x1
     bec:	fef42623          	sw	a5,-20(s0)
     bf0:	fd842703          	lw	a4,-40(s0)
     bf4:	fdc42783          	lw	a5,-36(s0)
     bf8:	04f77e63          	bgeu	a4,a5,c54 <__umodsi3+0xa0>
     bfc:	fec42783          	lw	a5,-20(s0)
     c00:	04078a63          	beqz	a5,c54 <__umodsi3+0xa0>
     c04:	fd842783          	lw	a5,-40(s0)
     c08:	fc07d8e3          	bgez	a5,bd8 <__umodsi3+0x24>
     c0c:	0480006f          	j	c54 <__umodsi3+0xa0>
     c10:	fdc42703          	lw	a4,-36(s0)
     c14:	fd842783          	lw	a5,-40(s0)
     c18:	02f76263          	bltu	a4,a5,c3c <__umodsi3+0x88>
     c1c:	fdc42703          	lw	a4,-36(s0)
     c20:	fd842783          	lw	a5,-40(s0)
     c24:	40f707b3          	sub	a5,a4,a5
     c28:	fcf42e23          	sw	a5,-36(s0)
     c2c:	fe842703          	lw	a4,-24(s0)
     c30:	fec42783          	lw	a5,-20(s0)
     c34:	00f767b3          	or	a5,a4,a5
     c38:	fef42423          	sw	a5,-24(s0)
     c3c:	fec42783          	lw	a5,-20(s0)
     c40:	0017d793          	srli	a5,a5,0x1
     c44:	fef42623          	sw	a5,-20(s0)
     c48:	fd842783          	lw	a5,-40(s0)
     c4c:	0017d793          	srli	a5,a5,0x1
     c50:	fcf42c23          	sw	a5,-40(s0)
     c54:	fec42783          	lw	a5,-20(s0)
     c58:	fa079ce3          	bnez	a5,c10 <__umodsi3+0x5c>
     c5c:	fdc42783          	lw	a5,-36(s0)
     c60:	00078513          	mv	a0,a5
     c64:	02c12403          	lw	s0,44(sp)
     c68:	03010113          	addi	sp,sp,48
     c6c:	00008067          	ret

00000c70 <__udivsi3>:
     c70:	fd010113          	addi	sp,sp,-48
     c74:	02812623          	sw	s0,44(sp)
     c78:	03010413          	addi	s0,sp,48
     c7c:	fca42e23          	sw	a0,-36(s0)
     c80:	fcb42c23          	sw	a1,-40(s0)
     c84:	00100793          	li	a5,1
     c88:	fef42623          	sw	a5,-20(s0)
     c8c:	fe042423          	sw	zero,-24(s0)
     c90:	01c0006f          	j	cac <__udivsi3+0x3c>
     c94:	fd842783          	lw	a5,-40(s0)
     c98:	00179793          	slli	a5,a5,0x1
     c9c:	fcf42c23          	sw	a5,-40(s0)
     ca0:	fec42783          	lw	a5,-20(s0)
     ca4:	00179793          	slli	a5,a5,0x1
     ca8:	fef42623          	sw	a5,-20(s0)
     cac:	fd842703          	lw	a4,-40(s0)
     cb0:	fdc42783          	lw	a5,-36(s0)
     cb4:	04f77e63          	bgeu	a4,a5,d10 <__udivsi3+0xa0>
     cb8:	fec42783          	lw	a5,-20(s0)
     cbc:	04078a63          	beqz	a5,d10 <__udivsi3+0xa0>
     cc0:	fd842783          	lw	a5,-40(s0)
     cc4:	fc07d8e3          	bgez	a5,c94 <__udivsi3+0x24>
     cc8:	0480006f          	j	d10 <__udivsi3+0xa0>
     ccc:	fdc42703          	lw	a4,-36(s0)
     cd0:	fd842783          	lw	a5,-40(s0)
     cd4:	02f76263          	bltu	a4,a5,cf8 <__udivsi3+0x88>
     cd8:	fdc42703          	lw	a4,-36(s0)
     cdc:	fd842783          	lw	a5,-40(s0)
     ce0:	40f707b3          	sub	a5,a4,a5
     ce4:	fcf42e23          	sw	a5,-36(s0)
     ce8:	fe842703          	lw	a4,-24(s0)
     cec:	fec42783          	lw	a5,-20(s0)
     cf0:	00f767b3          	or	a5,a4,a5
     cf4:	fef42423          	sw	a5,-24(s0)
     cf8:	fec42783          	lw	a5,-20(s0)
     cfc:	0017d793          	srli	a5,a5,0x1
     d00:	fef42623          	sw	a5,-20(s0)
     d04:	fd842783          	lw	a5,-40(s0)
     d08:	0017d793          	srli	a5,a5,0x1
     d0c:	fcf42c23          	sw	a5,-40(s0)
     d10:	fec42783          	lw	a5,-20(s0)
     d14:	fa079ce3          	bnez	a5,ccc <__udivsi3+0x5c>
     d18:	fe842783          	lw	a5,-24(s0)
     d1c:	00078513          	mv	a0,a5
     d20:	02c12403          	lw	s0,44(sp)
     d24:	03010113          	addi	sp,sp,48
     d28:	00008067          	ret

00000d2c <_long_divsi3>:
     d2c:	fd010113          	addi	sp,sp,-48
     d30:	02812623          	sw	s0,44(sp)
     d34:	03010413          	addi	s0,sp,48
     d38:	fca42c23          	sw	a0,-40(s0)
     d3c:	fcb42e23          	sw	a1,-36(s0)
     d40:	fcc42a23          	sw	a2,-44(s0)
     d44:	00100713          	li	a4,1
     d48:	00000793          	li	a5,0
     d4c:	fee42423          	sw	a4,-24(s0)
     d50:	fef42623          	sw	a5,-20(s0)
     d54:	00000713          	li	a4,0
     d58:	00000793          	li	a5,0
     d5c:	fee42023          	sw	a4,-32(s0)
     d60:	fef42223          	sw	a5,-28(s0)
     d64:	0340006f          	j	d98 <_long_divsi3+0x6c>
     d68:	fd442783          	lw	a5,-44(s0)
     d6c:	00179793          	slli	a5,a5,0x1
     d70:	fcf42a23          	sw	a5,-44(s0)
     d74:	fe842783          	lw	a5,-24(s0)
     d78:	01f7d793          	srli	a5,a5,0x1f
     d7c:	fec42703          	lw	a4,-20(s0)
     d80:	00171713          	slli	a4,a4,0x1
     d84:	00f767b3          	or	a5,a4,a5
     d88:	fef42623          	sw	a5,-20(s0)
     d8c:	fe842783          	lw	a5,-24(s0)
     d90:	00179793          	slli	a5,a5,0x1
     d94:	fef42423          	sw	a5,-24(s0)
     d98:	fd442783          	lw	a5,-44(s0)
     d9c:	00078e13          	mv	t3,a5
     da0:	41f7d793          	srai	a5,a5,0x1f
     da4:	00078e93          	mv	t4,a5
     da8:	fdc42783          	lw	a5,-36(s0)
     dac:	000e8713          	mv	a4,t4
     db0:	00f74e63          	blt	a4,a5,dcc <_long_divsi3+0xa0>
     db4:	fdc42783          	lw	a5,-36(s0)
     db8:	000e8713          	mv	a4,t4
     dbc:	0ee79463          	bne	a5,a4,ea4 <_long_divsi3+0x178>
     dc0:	fd842783          	lw	a5,-40(s0)
     dc4:	000e0713          	mv	a4,t3
     dc8:	00f77e63          	bgeu	a4,a5,de4 <_long_divsi3+0xb8>
     dcc:	fe842783          	lw	a5,-24(s0)
     dd0:	fec42703          	lw	a4,-20(s0)
     dd4:	00e7e7b3          	or	a5,a5,a4
     dd8:	0c078663          	beqz	a5,ea4 <_long_divsi3+0x178>
     ddc:	fd442783          	lw	a5,-44(s0)
     de0:	f807d4e3          	bgez	a5,d68 <_long_divsi3+0x3c>
     de4:	0c00006f          	j	ea4 <_long_divsi3+0x178>
     de8:	fd442783          	lw	a5,-44(s0)
     dec:	00078313          	mv	t1,a5
     df0:	41f7d793          	srai	a5,a5,0x1f
     df4:	00078393          	mv	t2,a5
     df8:	fdc42783          	lw	a5,-36(s0)
     dfc:	00038713          	mv	a4,t2
     e00:	06e7ca63          	blt	a5,a4,e74 <_long_divsi3+0x148>
     e04:	fdc42783          	lw	a5,-36(s0)
     e08:	00038713          	mv	a4,t2
     e0c:	00e79863          	bne	a5,a4,e1c <_long_divsi3+0xf0>
     e10:	fd842783          	lw	a5,-40(s0)
     e14:	00030713          	mv	a4,t1
     e18:	04e7ee63          	bltu	a5,a4,e74 <_long_divsi3+0x148>
     e1c:	fd442783          	lw	a5,-44(s0)
     e20:	00078813          	mv	a6,a5
     e24:	41f7d793          	srai	a5,a5,0x1f
     e28:	00078893          	mv	a7,a5
     e2c:	fd842603          	lw	a2,-40(s0)
     e30:	fdc42683          	lw	a3,-36(s0)
     e34:	41060733          	sub	a4,a2,a6
     e38:	00070593          	mv	a1,a4
     e3c:	00b635b3          	sltu	a1,a2,a1
     e40:	411687b3          	sub	a5,a3,a7
     e44:	40b786b3          	sub	a3,a5,a1
     e48:	00068793          	mv	a5,a3
     e4c:	fce42c23          	sw	a4,-40(s0)
     e50:	fcf42e23          	sw	a5,-36(s0)
     e54:	fe042703          	lw	a4,-32(s0)
     e58:	fe842783          	lw	a5,-24(s0)
     e5c:	00f767b3          	or	a5,a4,a5
     e60:	fef42023          	sw	a5,-32(s0)
     e64:	fe442703          	lw	a4,-28(s0)
     e68:	fec42783          	lw	a5,-20(s0)
     e6c:	00f767b3          	or	a5,a4,a5
     e70:	fef42223          	sw	a5,-28(s0)
     e74:	fec42783          	lw	a5,-20(s0)
     e78:	01f79793          	slli	a5,a5,0x1f
     e7c:	fe842703          	lw	a4,-24(s0)
     e80:	00175713          	srli	a4,a4,0x1
     e84:	00f767b3          	or	a5,a4,a5
     e88:	fef42423          	sw	a5,-24(s0)
     e8c:	fec42783          	lw	a5,-20(s0)
     e90:	4017d793          	srai	a5,a5,0x1
     e94:	fef42623          	sw	a5,-20(s0)
     e98:	fd442783          	lw	a5,-44(s0)
     e9c:	4017d793          	srai	a5,a5,0x1
     ea0:	fcf42a23          	sw	a5,-44(s0)
     ea4:	fe842783          	lw	a5,-24(s0)
     ea8:	fec42703          	lw	a4,-20(s0)
     eac:	00e7e7b3          	or	a5,a5,a4
     eb0:	f2079ce3          	bnez	a5,de8 <_long_divsi3+0xbc>
     eb4:	fe042703          	lw	a4,-32(s0)
     eb8:	fe442783          	lw	a5,-28(s0)
     ebc:	00070513          	mv	a0,a4
     ec0:	00078593          	mv	a1,a5
     ec4:	02c12403          	lw	s0,44(sp)
     ec8:	03010113          	addi	sp,sp,48
     ecc:	00008067          	ret

00000ed0 <_long_modsi3>:
     ed0:	fd010113          	addi	sp,sp,-48
     ed4:	02812623          	sw	s0,44(sp)
     ed8:	03010413          	addi	s0,sp,48
     edc:	fca42c23          	sw	a0,-40(s0)
     ee0:	fcb42e23          	sw	a1,-36(s0)
     ee4:	fcc42a23          	sw	a2,-44(s0)
     ee8:	00100713          	li	a4,1
     eec:	00000793          	li	a5,0
     ef0:	fee42423          	sw	a4,-24(s0)
     ef4:	fef42623          	sw	a5,-20(s0)
     ef8:	00000713          	li	a4,0
     efc:	00000793          	li	a5,0
     f00:	fee42023          	sw	a4,-32(s0)
     f04:	fef42223          	sw	a5,-28(s0)
     f08:	0340006f          	j	f3c <_long_modsi3+0x6c>
     f0c:	fd442783          	lw	a5,-44(s0)
     f10:	00179793          	slli	a5,a5,0x1
     f14:	fcf42a23          	sw	a5,-44(s0)
     f18:	fe842783          	lw	a5,-24(s0)
     f1c:	01f7d793          	srli	a5,a5,0x1f
     f20:	fec42703          	lw	a4,-20(s0)
     f24:	00171713          	slli	a4,a4,0x1
     f28:	00f767b3          	or	a5,a4,a5
     f2c:	fef42623          	sw	a5,-20(s0)
     f30:	fe842783          	lw	a5,-24(s0)
     f34:	00179793          	slli	a5,a5,0x1
     f38:	fef42423          	sw	a5,-24(s0)
     f3c:	fd442783          	lw	a5,-44(s0)
     f40:	00078e13          	mv	t3,a5
     f44:	41f7d793          	srai	a5,a5,0x1f
     f48:	00078e93          	mv	t4,a5
     f4c:	fdc42783          	lw	a5,-36(s0)
     f50:	000e8713          	mv	a4,t4
     f54:	00f74e63          	blt	a4,a5,f70 <_long_modsi3+0xa0>
     f58:	fdc42783          	lw	a5,-36(s0)
     f5c:	000e8713          	mv	a4,t4
     f60:	0ee79463          	bne	a5,a4,1048 <_long_modsi3+0x178>
     f64:	fd842783          	lw	a5,-40(s0)
     f68:	000e0713          	mv	a4,t3
     f6c:	00f77e63          	bgeu	a4,a5,f88 <_long_modsi3+0xb8>
     f70:	fe842783          	lw	a5,-24(s0)
     f74:	fec42703          	lw	a4,-20(s0)
     f78:	00e7e7b3          	or	a5,a5,a4
     f7c:	0c078663          	beqz	a5,1048 <_long_modsi3+0x178>
     f80:	fd442783          	lw	a5,-44(s0)
     f84:	f807d4e3          	bgez	a5,f0c <_long_modsi3+0x3c>
     f88:	0c00006f          	j	1048 <_long_modsi3+0x178>
     f8c:	fd442783          	lw	a5,-44(s0)
     f90:	00078313          	mv	t1,a5
     f94:	41f7d793          	srai	a5,a5,0x1f
     f98:	00078393          	mv	t2,a5
     f9c:	fdc42783          	lw	a5,-36(s0)
     fa0:	00038713          	mv	a4,t2
     fa4:	06e7ca63          	blt	a5,a4,1018 <_long_modsi3+0x148>
     fa8:	fdc42783          	lw	a5,-36(s0)
     fac:	00038713          	mv	a4,t2
     fb0:	00e79863          	bne	a5,a4,fc0 <_long_modsi3+0xf0>
     fb4:	fd842783          	lw	a5,-40(s0)
     fb8:	00030713          	mv	a4,t1
     fbc:	04e7ee63          	bltu	a5,a4,1018 <_long_modsi3+0x148>
     fc0:	fd442783          	lw	a5,-44(s0)
     fc4:	00078813          	mv	a6,a5
     fc8:	41f7d793          	srai	a5,a5,0x1f
     fcc:	00078893          	mv	a7,a5
     fd0:	fd842603          	lw	a2,-40(s0)
     fd4:	fdc42683          	lw	a3,-36(s0)
     fd8:	41060733          	sub	a4,a2,a6
     fdc:	00070593          	mv	a1,a4
     fe0:	00b635b3          	sltu	a1,a2,a1
     fe4:	411687b3          	sub	a5,a3,a7
     fe8:	40b786b3          	sub	a3,a5,a1
     fec:	00068793          	mv	a5,a3
     ff0:	fce42c23          	sw	a4,-40(s0)
     ff4:	fcf42e23          	sw	a5,-36(s0)
     ff8:	fe042703          	lw	a4,-32(s0)
     ffc:	fe842783          	lw	a5,-24(s0)
    1000:	00f767b3          	or	a5,a4,a5
    1004:	fef42023          	sw	a5,-32(s0)
    1008:	fe442703          	lw	a4,-28(s0)
    100c:	fec42783          	lw	a5,-20(s0)
    1010:	00f767b3          	or	a5,a4,a5
    1014:	fef42223          	sw	a5,-28(s0)
    1018:	fec42783          	lw	a5,-20(s0)
    101c:	01f79793          	slli	a5,a5,0x1f
    1020:	fe842703          	lw	a4,-24(s0)
    1024:	00175713          	srli	a4,a4,0x1
    1028:	00f767b3          	or	a5,a4,a5
    102c:	fef42423          	sw	a5,-24(s0)
    1030:	fec42783          	lw	a5,-20(s0)
    1034:	4017d793          	srai	a5,a5,0x1
    1038:	fef42623          	sw	a5,-20(s0)
    103c:	fd442783          	lw	a5,-44(s0)
    1040:	4017d793          	srai	a5,a5,0x1
    1044:	fcf42a23          	sw	a5,-44(s0)
    1048:	fe842783          	lw	a5,-24(s0)
    104c:	fec42703          	lw	a4,-20(s0)
    1050:	00e7e7b3          	or	a5,a5,a4
    1054:	f2079ce3          	bnez	a5,f8c <_long_modsi3+0xbc>
    1058:	fd842703          	lw	a4,-40(s0)
    105c:	fdc42783          	lw	a5,-36(s0)
    1060:	00070513          	mv	a0,a4
    1064:	00078593          	mv	a1,a5
    1068:	02c12403          	lw	s0,44(sp)
    106c:	03010113          	addi	sp,sp,48
    1070:	00008067          	ret

Disassembly of section .data:

00100010 <hellofun>:
  100010:	6548                	flw	fa0,12(a0)
  100012:	6c6c                	flw	fa1,92(s0)
  100014:	6f57206f          	j	172f08 <_end+0x72708>
  100018:	6c72                	flw	fs8,28(sp)
  10001a:	2164                	fld	fs1,192(a0)
  10001c:	000a                	c.slli	zero,0x2
