
main.elf:     file format elf32-littleriscv


Disassembly of section .text:

00000000 <entry>:
       0:	ff010113          	addi	sp,sp,-16
       4:	00112623          	sw	ra,12(sp)
       8:	00812423          	sw	s0,8(sp)
       c:	01010413          	addi	s0,sp,16
      10:	00120137          	lui	sp,0x120
      14:	ffc10113          	addi	sp,sp,-4 # 11fffc <_end+0x1effc>
      18:	018000ef          	jal	ra,30 <main>
      1c:	00000013          	nop
      20:	00c12083          	lw	ra,12(sp)
      24:	00812403          	lw	s0,8(sp)
      28:	01010113          	addi	sp,sp,16
      2c:	00008067          	ret

00000030 <main>:
      30:	fe010113          	addi	sp,sp,-32
      34:	00112e23          	sw	ra,28(sp)
      38:	00812c23          	sw	s0,24(sp)
      3c:	02010413          	addi	s0,sp,32
      40:	7fd010ef          	jal	ra,203c <WelcomePage>
      44:	1c4000ef          	jal	ra,208 <vga_init>
      48:	00101517          	auipc	a0,0x101
      4c:	90850513          	addi	a0,a0,-1784 # 100950 <hello>
      50:	67c000ef          	jal	ra,6cc <putstr>
      54:	278000ef          	jal	ra,2cc <vga_line_add>
      58:	6d4000ef          	jal	ra,72c <getch>
      5c:	00050793          	mv	a5,a0
      60:	fef407a3          	sb	a5,-17(s0)
      64:	fef44783          	lbu	a5,-17(s0)
      68:	00078513          	mv	a0,a5
      6c:	744000ef          	jal	ra,7b0 <putcom>
      70:	fe9ff06f          	j	58 <main+0x28>

00000074 <addline>:
      74:	fe010113          	addi	sp,sp,-32
      78:	00812e23          	sw	s0,28(sp)
      7c:	02010413          	addi	s0,sp,32
      80:	00101797          	auipc	a5,0x101
      84:	a3078793          	addi	a5,a5,-1488 # 100ab0 <vga_line>
      88:	0007a703          	lw	a4,0(a5)
      8c:	01d00793          	li	a5,29
      90:	0ef71c63          	bne	a4,a5,188 <addline+0x114>
      94:	00100793          	li	a5,1
      98:	fef42623          	sw	a5,-20(s0)
      9c:	09c0006f          	j	138 <addline+0xc4>
      a0:	fe042423          	sw	zero,-24(s0)
      a4:	07c0006f          	j	120 <addline+0xac>
      a8:	00101797          	auipc	a5,0x101
      ac:	90478793          	addi	a5,a5,-1788 # 1009ac <vga_start>
      b0:	0007a683          	lw	a3,0(a5)
      b4:	fec42783          	lw	a5,-20(s0)
      b8:	fff78713          	addi	a4,a5,-1
      bc:	00070793          	mv	a5,a4
      c0:	00279793          	slli	a5,a5,0x2
      c4:	00e787b3          	add	a5,a5,a4
      c8:	00479793          	slli	a5,a5,0x4
      cc:	00078713          	mv	a4,a5
      d0:	fe842783          	lw	a5,-24(s0)
      d4:	00f707b3          	add	a5,a4,a5
      d8:	00f686b3          	add	a3,a3,a5
      dc:	00101797          	auipc	a5,0x101
      e0:	8d078793          	addi	a5,a5,-1840 # 1009ac <vga_start>
      e4:	0007a603          	lw	a2,0(a5)
      e8:	fec42703          	lw	a4,-20(s0)
      ec:	00070793          	mv	a5,a4
      f0:	00279793          	slli	a5,a5,0x2
      f4:	00e787b3          	add	a5,a5,a4
      f8:	00479793          	slli	a5,a5,0x4
      fc:	00078713          	mv	a4,a5
     100:	fe842783          	lw	a5,-24(s0)
     104:	00f707b3          	add	a5,a4,a5
     108:	00f607b3          	add	a5,a2,a5
     10c:	0006c703          	lbu	a4,0(a3)
     110:	00e78023          	sb	a4,0(a5)
     114:	fe842783          	lw	a5,-24(s0)
     118:	00178793          	addi	a5,a5,1
     11c:	fef42423          	sw	a5,-24(s0)
     120:	fe842703          	lw	a4,-24(s0)
     124:	01d00793          	li	a5,29
     128:	f8e7d0e3          	bge	a5,a4,a8 <addline+0x34>
     12c:	fec42783          	lw	a5,-20(s0)
     130:	00178793          	addi	a5,a5,1
     134:	fef42623          	sw	a5,-20(s0)
     138:	fec42703          	lw	a4,-20(s0)
     13c:	04f00793          	li	a5,79
     140:	f6e7d0e3          	bge	a5,a4,a0 <addline+0x2c>
     144:	fe042223          	sw	zero,-28(s0)
     148:	0340006f          	j	17c <addline+0x108>
     14c:	00101797          	auipc	a5,0x101
     150:	86078793          	addi	a5,a5,-1952 # 1009ac <vga_start>
     154:	0007a783          	lw	a5,0(a5)
     158:	fe442683          	lw	a3,-28(s0)
     15c:	00001737          	lui	a4,0x1
     160:	94270713          	addi	a4,a4,-1726 # 942 <readnum+0x1e>
     164:	00e68733          	add	a4,a3,a4
     168:	00e787b3          	add	a5,a5,a4
     16c:	00078023          	sb	zero,0(a5)
     170:	fe442783          	lw	a5,-28(s0)
     174:	00178793          	addi	a5,a5,1
     178:	fef42223          	sw	a5,-28(s0)
     17c:	fe442703          	lw	a4,-28(s0)
     180:	01d00793          	li	a5,29
     184:	fce7d4e3          	bge	a5,a4,14c <addline+0xd8>
     188:	00000013          	nop
     18c:	01c12403          	lw	s0,28(sp)
     190:	02010113          	addi	sp,sp,32
     194:	00008067          	ret

00000198 <vga_clear>:
     198:	fe010113          	addi	sp,sp,-32
     19c:	00812e23          	sw	s0,28(sp)
     1a0:	02010413          	addi	s0,sp,32
     1a4:	00101797          	auipc	a5,0x101
     1a8:	90c78793          	addi	a5,a5,-1780 # 100ab0 <vga_line>
     1ac:	0007a023          	sw	zero,0(a5)
     1b0:	00101797          	auipc	a5,0x101
     1b4:	90478793          	addi	a5,a5,-1788 # 100ab4 <vga_ch>
     1b8:	0007a023          	sw	zero,0(a5)
     1bc:	fe042623          	sw	zero,-20(s0)
     1c0:	0280006f          	j	1e8 <vga_clear+0x50>
     1c4:	00100797          	auipc	a5,0x100
     1c8:	7e878793          	addi	a5,a5,2024 # 1009ac <vga_start>
     1cc:	0007a703          	lw	a4,0(a5)
     1d0:	fec42783          	lw	a5,-20(s0)
     1d4:	00f707b3          	add	a5,a4,a5
     1d8:	00078023          	sb	zero,0(a5)
     1dc:	fec42783          	lw	a5,-20(s0)
     1e0:	00178793          	addi	a5,a5,1
     1e4:	fef42623          	sw	a5,-20(s0)
     1e8:	fec42703          	lw	a4,-20(s0)
     1ec:	000017b7          	lui	a5,0x1
     1f0:	95f78793          	addi	a5,a5,-1697 # 95f <readnum+0x3b>
     1f4:	fce7d8e3          	bge	a5,a4,1c4 <vga_clear+0x2c>
     1f8:	00000013          	nop
     1fc:	01c12403          	lw	s0,28(sp)
     200:	02010113          	addi	sp,sp,32
     204:	00008067          	ret

00000208 <vga_init>:
     208:	ff010113          	addi	sp,sp,-16
     20c:	00112623          	sw	ra,12(sp)
     210:	00812423          	sw	s0,8(sp)
     214:	01010413          	addi	s0,sp,16
     218:	f81ff0ef          	jal	ra,198 <vga_clear>
     21c:	00100797          	auipc	a5,0x100
     220:	79078793          	addi	a5,a5,1936 # 1009ac <vga_start>
     224:	0007a783          	lw	a5,0(a5)
     228:	06e00713          	li	a4,110
     22c:	00e78023          	sb	a4,0(a5)
     230:	00100797          	auipc	a5,0x100
     234:	77c78793          	addi	a5,a5,1916 # 1009ac <vga_start>
     238:	0007a783          	lw	a5,0(a5)
     23c:	00178793          	addi	a5,a5,1
     240:	07400713          	li	a4,116
     244:	00e78023          	sb	a4,0(a5)
     248:	00100797          	auipc	a5,0x100
     24c:	76478793          	addi	a5,a5,1892 # 1009ac <vga_start>
     250:	0007a783          	lw	a5,0(a5)
     254:	00278793          	addi	a5,a5,2
     258:	06500713          	li	a4,101
     25c:	00e78023          	sb	a4,0(a5)
     260:	00100797          	auipc	a5,0x100
     264:	74c78793          	addi	a5,a5,1868 # 1009ac <vga_start>
     268:	0007a783          	lw	a5,0(a5)
     26c:	00378793          	addi	a5,a5,3
     270:	07200713          	li	a4,114
     274:	00e78023          	sb	a4,0(a5)
     278:	00100797          	auipc	a5,0x100
     27c:	73478793          	addi	a5,a5,1844 # 1009ac <vga_start>
     280:	0007a783          	lw	a5,0(a5)
     284:	00478793          	addi	a5,a5,4
     288:	06d00713          	li	a4,109
     28c:	00e78023          	sb	a4,0(a5)
     290:	00100797          	auipc	a5,0x100
     294:	71c78793          	addi	a5,a5,1820 # 1009ac <vga_start>
     298:	0007a783          	lw	a5,0(a5)
     29c:	00578793          	addi	a5,a5,5
     2a0:	03e00713          	li	a4,62
     2a4:	00e78023          	sb	a4,0(a5)
     2a8:	00101797          	auipc	a5,0x101
     2ac:	80c78793          	addi	a5,a5,-2036 # 100ab4 <vga_ch>
     2b0:	00600713          	li	a4,6
     2b4:	00e7a023          	sw	a4,0(a5)
     2b8:	00000013          	nop
     2bc:	00c12083          	lw	ra,12(sp)
     2c0:	00812403          	lw	s0,8(sp)
     2c4:	01010113          	addi	sp,sp,16
     2c8:	00008067          	ret

000002cc <vga_line_add>:
     2cc:	ff010113          	addi	sp,sp,-16
     2d0:	00812623          	sw	s0,12(sp)
     2d4:	01010413          	addi	s0,sp,16
     2d8:	00100797          	auipc	a5,0x100
     2dc:	7dc78793          	addi	a5,a5,2012 # 100ab4 <vga_ch>
     2e0:	0007a783          	lw	a5,0(a5)
     2e4:	02078e63          	beqz	a5,320 <vga_line_add+0x54>
     2e8:	00100797          	auipc	a5,0x100
     2ec:	7c878793          	addi	a5,a5,1992 # 100ab0 <vga_line>
     2f0:	0007a703          	lw	a4,0(a5)
     2f4:	01c00793          	li	a5,28
     2f8:	00e7cc63          	blt	a5,a4,310 <vga_line_add+0x44>
     2fc:	00100797          	auipc	a5,0x100
     300:	7b478793          	addi	a5,a5,1972 # 100ab0 <vga_line>
     304:	0007a783          	lw	a5,0(a5)
     308:	00178793          	addi	a5,a5,1
     30c:	0080006f          	j	314 <vga_line_add+0x48>
     310:	00000793          	li	a5,0
     314:	00100717          	auipc	a4,0x100
     318:	79c70713          	addi	a4,a4,1948 # 100ab0 <vga_line>
     31c:	00f72023          	sw	a5,0(a4)
     320:	00100797          	auipc	a5,0x100
     324:	79478793          	addi	a5,a5,1940 # 100ab4 <vga_ch>
     328:	00600713          	li	a4,6
     32c:	00e7a023          	sw	a4,0(a5)
     330:	00100797          	auipc	a5,0x100
     334:	67c78793          	addi	a5,a5,1660 # 1009ac <vga_start>
     338:	0007a683          	lw	a3,0(a5)
     33c:	00100797          	auipc	a5,0x100
     340:	77478793          	addi	a5,a5,1908 # 100ab0 <vga_line>
     344:	0007a703          	lw	a4,0(a5)
     348:	00070793          	mv	a5,a4
     34c:	00279793          	slli	a5,a5,0x2
     350:	00e787b3          	add	a5,a5,a4
     354:	00479793          	slli	a5,a5,0x4
     358:	00f687b3          	add	a5,a3,a5
     35c:	06e00713          	li	a4,110
     360:	00e78023          	sb	a4,0(a5)
     364:	00100797          	auipc	a5,0x100
     368:	64878793          	addi	a5,a5,1608 # 1009ac <vga_start>
     36c:	0007a683          	lw	a3,0(a5)
     370:	00100797          	auipc	a5,0x100
     374:	74078793          	addi	a5,a5,1856 # 100ab0 <vga_line>
     378:	0007a703          	lw	a4,0(a5)
     37c:	00070793          	mv	a5,a4
     380:	00279793          	slli	a5,a5,0x2
     384:	00e787b3          	add	a5,a5,a4
     388:	00479793          	slli	a5,a5,0x4
     38c:	00178793          	addi	a5,a5,1
     390:	00f687b3          	add	a5,a3,a5
     394:	07400713          	li	a4,116
     398:	00e78023          	sb	a4,0(a5)
     39c:	00100797          	auipc	a5,0x100
     3a0:	61078793          	addi	a5,a5,1552 # 1009ac <vga_start>
     3a4:	0007a683          	lw	a3,0(a5)
     3a8:	00100797          	auipc	a5,0x100
     3ac:	70878793          	addi	a5,a5,1800 # 100ab0 <vga_line>
     3b0:	0007a703          	lw	a4,0(a5)
     3b4:	00070793          	mv	a5,a4
     3b8:	00279793          	slli	a5,a5,0x2
     3bc:	00e787b3          	add	a5,a5,a4
     3c0:	00479793          	slli	a5,a5,0x4
     3c4:	00278793          	addi	a5,a5,2
     3c8:	00f687b3          	add	a5,a3,a5
     3cc:	06500713          	li	a4,101
     3d0:	00e78023          	sb	a4,0(a5)
     3d4:	00100797          	auipc	a5,0x100
     3d8:	5d878793          	addi	a5,a5,1496 # 1009ac <vga_start>
     3dc:	0007a683          	lw	a3,0(a5)
     3e0:	00100797          	auipc	a5,0x100
     3e4:	6d078793          	addi	a5,a5,1744 # 100ab0 <vga_line>
     3e8:	0007a703          	lw	a4,0(a5)
     3ec:	00070793          	mv	a5,a4
     3f0:	00279793          	slli	a5,a5,0x2
     3f4:	00e787b3          	add	a5,a5,a4
     3f8:	00479793          	slli	a5,a5,0x4
     3fc:	00378793          	addi	a5,a5,3
     400:	00f687b3          	add	a5,a3,a5
     404:	07200713          	li	a4,114
     408:	00e78023          	sb	a4,0(a5)
     40c:	00100797          	auipc	a5,0x100
     410:	5a078793          	addi	a5,a5,1440 # 1009ac <vga_start>
     414:	0007a683          	lw	a3,0(a5)
     418:	00100797          	auipc	a5,0x100
     41c:	69878793          	addi	a5,a5,1688 # 100ab0 <vga_line>
     420:	0007a703          	lw	a4,0(a5)
     424:	00070793          	mv	a5,a4
     428:	00279793          	slli	a5,a5,0x2
     42c:	00e787b3          	add	a5,a5,a4
     430:	00479793          	slli	a5,a5,0x4
     434:	00478793          	addi	a5,a5,4
     438:	00f687b3          	add	a5,a3,a5
     43c:	06d00713          	li	a4,109
     440:	00e78023          	sb	a4,0(a5)
     444:	00100797          	auipc	a5,0x100
     448:	56878793          	addi	a5,a5,1384 # 1009ac <vga_start>
     44c:	0007a683          	lw	a3,0(a5)
     450:	00100797          	auipc	a5,0x100
     454:	66078793          	addi	a5,a5,1632 # 100ab0 <vga_line>
     458:	0007a703          	lw	a4,0(a5)
     45c:	00070793          	mv	a5,a4
     460:	00279793          	slli	a5,a5,0x2
     464:	00e787b3          	add	a5,a5,a4
     468:	00479793          	slli	a5,a5,0x4
     46c:	00578793          	addi	a5,a5,5
     470:	00f687b3          	add	a5,a3,a5
     474:	03e00713          	li	a4,62
     478:	00e78023          	sb	a4,0(a5)
     47c:	00000013          	nop
     480:	00c12403          	lw	s0,12(sp)
     484:	01010113          	addi	sp,sp,16
     488:	00008067          	ret

0000048c <putch>:
     48c:	fe010113          	addi	sp,sp,-32
     490:	00112e23          	sw	ra,28(sp)
     494:	00812c23          	sw	s0,24(sp)
     498:	02010413          	addi	s0,sp,32
     49c:	00050793          	mv	a5,a0
     4a0:	fef407a3          	sb	a5,-17(s0)
     4a4:	fef44703          	lbu	a4,-17(s0)
     4a8:	00800793          	li	a5,8
     4ac:	12f71a63          	bne	a4,a5,5e0 <putch+0x154>
     4b0:	00100797          	auipc	a5,0x100
     4b4:	60478793          	addi	a5,a5,1540 # 100ab4 <vga_ch>
     4b8:	0007a703          	lw	a4,0(a5)
     4bc:	00600793          	li	a5,6
     4c0:	1ee7dc63          	bge	a5,a4,6b8 <putch+0x22c>
     4c4:	00100797          	auipc	a5,0x100
     4c8:	5f078793          	addi	a5,a5,1520 # 100ab4 <vga_ch>
     4cc:	0007a783          	lw	a5,0(a5)
     4d0:	fff78713          	addi	a4,a5,-1
     4d4:	00100797          	auipc	a5,0x100
     4d8:	5e078793          	addi	a5,a5,1504 # 100ab4 <vga_ch>
     4dc:	00e7a023          	sw	a4,0(a5)
     4e0:	00100797          	auipc	a5,0x100
     4e4:	4cc78793          	addi	a5,a5,1228 # 1009ac <vga_start>
     4e8:	0007a683          	lw	a3,0(a5)
     4ec:	00100797          	auipc	a5,0x100
     4f0:	5c478793          	addi	a5,a5,1476 # 100ab0 <vga_line>
     4f4:	0007a703          	lw	a4,0(a5)
     4f8:	00070793          	mv	a5,a4
     4fc:	00279793          	slli	a5,a5,0x2
     500:	00e787b3          	add	a5,a5,a4
     504:	00479793          	slli	a5,a5,0x4
     508:	00078713          	mv	a4,a5
     50c:	00100797          	auipc	a5,0x100
     510:	5a878793          	addi	a5,a5,1448 # 100ab4 <vga_ch>
     514:	0007a783          	lw	a5,0(a5)
     518:	00f707b3          	add	a5,a4,a5
     51c:	00f687b3          	add	a5,a3,a5
     520:	00078023          	sb	zero,0(a5)
     524:	00100797          	auipc	a5,0x100
     528:	59078793          	addi	a5,a5,1424 # 100ab4 <vga_ch>
     52c:	0007a703          	lw	a4,0(a5)
     530:	00600793          	li	a5,6
     534:	06e7d863          	bge	a5,a4,5a4 <putch+0x118>
     538:	00100797          	auipc	a5,0x100
     53c:	58078793          	addi	a5,a5,1408 # 100ab8 <cnt>
     540:	0007a783          	lw	a5,0(a5)
     544:	fff78693          	addi	a3,a5,-1
     548:	00100797          	auipc	a5,0x100
     54c:	46478793          	addi	a5,a5,1124 # 1009ac <vga_start>
     550:	0007a603          	lw	a2,0(a5)
     554:	00100797          	auipc	a5,0x100
     558:	55c78793          	addi	a5,a5,1372 # 100ab0 <vga_line>
     55c:	0007a703          	lw	a4,0(a5)
     560:	00070793          	mv	a5,a4
     564:	00279793          	slli	a5,a5,0x2
     568:	00e787b3          	add	a5,a5,a4
     56c:	00479793          	slli	a5,a5,0x4
     570:	00078713          	mv	a4,a5
     574:	00100797          	auipc	a5,0x100
     578:	54078793          	addi	a5,a5,1344 # 100ab4 <vga_ch>
     57c:	0007a783          	lw	a5,0(a5)
     580:	00f707b3          	add	a5,a4,a5
     584:	fff78793          	addi	a5,a5,-1
     588:	00f607b3          	add	a5,a2,a5
     58c:	00100717          	auipc	a4,0x100
     590:	46470713          	addi	a4,a4,1124 # 1009f0 <command>
     594:	00d70733          	add	a4,a4,a3
     598:	00074703          	lbu	a4,0(a4)
     59c:	00e78023          	sb	a4,0(a5)
     5a0:	1180006f          	j	6b8 <putch+0x22c>
     5a4:	00100797          	auipc	a5,0x100
     5a8:	40878793          	addi	a5,a5,1032 # 1009ac <vga_start>
     5ac:	0007a683          	lw	a3,0(a5)
     5b0:	00100797          	auipc	a5,0x100
     5b4:	50078793          	addi	a5,a5,1280 # 100ab0 <vga_line>
     5b8:	0007a703          	lw	a4,0(a5)
     5bc:	00070793          	mv	a5,a4
     5c0:	00279793          	slli	a5,a5,0x2
     5c4:	00e787b3          	add	a5,a5,a4
     5c8:	00479793          	slli	a5,a5,0x4
     5cc:	00578793          	addi	a5,a5,5
     5d0:	00f687b3          	add	a5,a3,a5
     5d4:	03e00713          	li	a4,62
     5d8:	00e78023          	sb	a4,0(a5)
     5dc:	0dc0006f          	j	6b8 <putch+0x22c>
     5e0:	fef44703          	lbu	a4,-17(s0)
     5e4:	00a00793          	li	a5,10
     5e8:	00f71663          	bne	a4,a5,5f4 <putch+0x168>
     5ec:	a89ff0ef          	jal	ra,74 <addline>
     5f0:	0cc0006f          	j	6bc <putch+0x230>
     5f4:	00100797          	auipc	a5,0x100
     5f8:	3b878793          	addi	a5,a5,952 # 1009ac <vga_start>
     5fc:	0007a683          	lw	a3,0(a5)
     600:	00100797          	auipc	a5,0x100
     604:	4b078793          	addi	a5,a5,1200 # 100ab0 <vga_line>
     608:	0007a703          	lw	a4,0(a5)
     60c:	00070793          	mv	a5,a4
     610:	00279793          	slli	a5,a5,0x2
     614:	00e787b3          	add	a5,a5,a4
     618:	00479793          	slli	a5,a5,0x4
     61c:	00078713          	mv	a4,a5
     620:	00100797          	auipc	a5,0x100
     624:	49478793          	addi	a5,a5,1172 # 100ab4 <vga_ch>
     628:	0007a783          	lw	a5,0(a5)
     62c:	00f707b3          	add	a5,a4,a5
     630:	00f687b3          	add	a5,a3,a5
     634:	fef44703          	lbu	a4,-17(s0)
     638:	00e78023          	sb	a4,0(a5)
     63c:	00100797          	auipc	a5,0x100
     640:	47878793          	addi	a5,a5,1144 # 100ab4 <vga_ch>
     644:	0007a703          	lw	a4,0(a5)
     648:	04f00793          	li	a5,79
     64c:	04f71663          	bne	a4,a5,698 <putch+0x20c>
     650:	00100797          	auipc	a5,0x100
     654:	46478793          	addi	a5,a5,1124 # 100ab4 <vga_ch>
     658:	0007a023          	sw	zero,0(a5)
     65c:	00100797          	auipc	a5,0x100
     660:	45478793          	addi	a5,a5,1108 # 100ab0 <vga_line>
     664:	0007a703          	lw	a4,0(a5)
     668:	01c00793          	li	a5,28
     66c:	00e7cc63          	blt	a5,a4,684 <putch+0x1f8>
     670:	00100797          	auipc	a5,0x100
     674:	44078793          	addi	a5,a5,1088 # 100ab0 <vga_line>
     678:	0007a783          	lw	a5,0(a5)
     67c:	00178793          	addi	a5,a5,1
     680:	0080006f          	j	688 <putch+0x1fc>
     684:	00000793          	li	a5,0
     688:	00100717          	auipc	a4,0x100
     68c:	42870713          	addi	a4,a4,1064 # 100ab0 <vga_line>
     690:	00f72023          	sw	a5,0(a4)
     694:	0280006f          	j	6bc <putch+0x230>
     698:	00100797          	auipc	a5,0x100
     69c:	41c78793          	addi	a5,a5,1052 # 100ab4 <vga_ch>
     6a0:	0007a783          	lw	a5,0(a5)
     6a4:	00178713          	addi	a4,a5,1
     6a8:	00100797          	auipc	a5,0x100
     6ac:	40c78793          	addi	a5,a5,1036 # 100ab4 <vga_ch>
     6b0:	00e7a023          	sw	a4,0(a5)
     6b4:	0080006f          	j	6bc <putch+0x230>
     6b8:	00000013          	nop
     6bc:	01c12083          	lw	ra,28(sp)
     6c0:	01812403          	lw	s0,24(sp)
     6c4:	02010113          	addi	sp,sp,32
     6c8:	00008067          	ret

000006cc <putstr>:
     6cc:	fd010113          	addi	sp,sp,-48
     6d0:	02112623          	sw	ra,44(sp)
     6d4:	02812423          	sw	s0,40(sp)
     6d8:	03010413          	addi	s0,sp,48
     6dc:	fca42e23          	sw	a0,-36(s0)
     6e0:	fdc42783          	lw	a5,-36(s0)
     6e4:	fef42623          	sw	a5,-20(s0)
     6e8:	0200006f          	j	708 <putstr+0x3c>
     6ec:	fec42783          	lw	a5,-20(s0)
     6f0:	0007c783          	lbu	a5,0(a5)
     6f4:	00078513          	mv	a0,a5
     6f8:	d95ff0ef          	jal	ra,48c <putch>
     6fc:	fec42783          	lw	a5,-20(s0)
     700:	00178793          	addi	a5,a5,1
     704:	fef42623          	sw	a5,-20(s0)
     708:	fec42783          	lw	a5,-20(s0)
     70c:	0007c783          	lbu	a5,0(a5)
     710:	fc079ee3          	bnez	a5,6ec <putstr+0x20>
     714:	00000013          	nop
     718:	00000013          	nop
     71c:	02c12083          	lw	ra,44(sp)
     720:	02812403          	lw	s0,40(sp)
     724:	03010113          	addi	sp,sp,48
     728:	00008067          	ret

0000072c <getch>:
     72c:	fe010113          	addi	sp,sp,-32
     730:	00812e23          	sw	s0,28(sp)
     734:	02010413          	addi	s0,sp,32
     738:	00000013          	nop
     73c:	00100797          	auipc	a5,0x100
     740:	27478793          	addi	a5,a5,628 # 1009b0 <key_tail>
     744:	0007a783          	lw	a5,0(a5)
     748:	0007c703          	lbu	a4,0(a5)
     74c:	00100797          	auipc	a5,0x100
     750:	37078793          	addi	a5,a5,880 # 100abc <head>
     754:	0007c783          	lbu	a5,0(a5)
     758:	fef702e3          	beq	a4,a5,73c <getch+0x10>
     75c:	00100797          	auipc	a5,0x100
     760:	25878793          	addi	a5,a5,600 # 1009b4 <key_buf>
     764:	0007a783          	lw	a5,0(a5)
     768:	00100717          	auipc	a4,0x100
     76c:	35470713          	addi	a4,a4,852 # 100abc <head>
     770:	00074703          	lbu	a4,0(a4)
     774:	00e787b3          	add	a5,a5,a4
     778:	0007c783          	lbu	a5,0(a5)
     77c:	fef407a3          	sb	a5,-17(s0)
     780:	00100797          	auipc	a5,0x100
     784:	23078793          	addi	a5,a5,560 # 1009b0 <key_tail>
     788:	0007a783          	lw	a5,0(a5)
     78c:	0007c703          	lbu	a4,0(a5)
     790:	00100797          	auipc	a5,0x100
     794:	32c78793          	addi	a5,a5,812 # 100abc <head>
     798:	00e78023          	sb	a4,0(a5)
     79c:	fef44783          	lbu	a5,-17(s0)
     7a0:	00078513          	mv	a0,a5
     7a4:	01c12403          	lw	s0,28(sp)
     7a8:	02010113          	addi	sp,sp,32
     7ac:	00008067          	ret

000007b0 <putcom>:
     7b0:	fd010113          	addi	sp,sp,-48
     7b4:	02112623          	sw	ra,44(sp)
     7b8:	02812423          	sw	s0,40(sp)
     7bc:	03010413          	addi	s0,sp,48
     7c0:	00050793          	mv	a5,a0
     7c4:	fcf40fa3          	sb	a5,-33(s0)
     7c8:	fdf44703          	lbu	a4,-33(s0)
     7cc:	00800793          	li	a5,8
     7d0:	04f71463          	bne	a4,a5,818 <putcom+0x68>
     7d4:	00100797          	auipc	a5,0x100
     7d8:	2e478793          	addi	a5,a5,740 # 100ab8 <cnt>
     7dc:	0007a783          	lw	a5,0(a5)
     7e0:	fff78713          	addi	a4,a5,-1
     7e4:	00100797          	auipc	a5,0x100
     7e8:	2d478793          	addi	a5,a5,724 # 100ab8 <cnt>
     7ec:	00e7a023          	sw	a4,0(a5)
     7f0:	00100797          	auipc	a5,0x100
     7f4:	2c878793          	addi	a5,a5,712 # 100ab8 <cnt>
     7f8:	0007a783          	lw	a5,0(a5)
     7fc:	00100717          	auipc	a4,0x100
     800:	1f470713          	addi	a4,a4,500 # 1009f0 <command>
     804:	00f707b3          	add	a5,a4,a5
     808:	00078023          	sb	zero,0(a5)
     80c:	00800513          	li	a0,8
     810:	c7dff0ef          	jal	ra,48c <putch>
     814:	0fc0006f          	j	910 <putcom+0x160>
     818:	fdf44703          	lbu	a4,-33(s0)
     81c:	00d00793          	li	a5,13
     820:	0af71463          	bne	a4,a5,8c8 <putcom+0x118>
     824:	00100797          	auipc	a5,0x100
     828:	29478793          	addi	a5,a5,660 # 100ab8 <cnt>
     82c:	0007a783          	lw	a5,0(a5)
     830:	00100717          	auipc	a4,0x100
     834:	1c070713          	addi	a4,a4,448 # 1009f0 <command>
     838:	00f707b3          	add	a5,a4,a5
     83c:	00078023          	sb	zero,0(a5)
     840:	00100797          	auipc	a5,0x100
     844:	27478793          	addi	a5,a5,628 # 100ab4 <vga_ch>
     848:	0007a023          	sw	zero,0(a5)
     84c:	00a00513          	li	a0,10
     850:	c3dff0ef          	jal	ra,48c <putch>
     854:	000ff517          	auipc	a0,0xff
     858:	7ac50513          	addi	a0,a0,1964 # 100000 <_etext+0xfdc24>
     85c:	e71ff0ef          	jal	ra,6cc <putstr>
     860:	00100517          	auipc	a0,0x100
     864:	19050513          	addi	a0,a0,400 # 1009f0 <command>
     868:	e65ff0ef          	jal	ra,6cc <putstr>
     86c:	00a00513          	li	a0,10
     870:	c1dff0ef          	jal	ra,48c <putch>
     874:	00100517          	auipc	a0,0x100
     878:	17c50513          	addi	a0,a0,380 # 1009f0 <command>
     87c:	0f5010ef          	jal	ra,2170 <deal_com>
     880:	a4dff0ef          	jal	ra,2cc <vga_line_add>
     884:	00100797          	auipc	a5,0x100
     888:	23478793          	addi	a5,a5,564 # 100ab8 <cnt>
     88c:	0007a023          	sw	zero,0(a5)
     890:	fe042623          	sw	zero,-20(s0)
     894:	0240006f          	j	8b8 <putcom+0x108>
     898:	00100717          	auipc	a4,0x100
     89c:	15870713          	addi	a4,a4,344 # 1009f0 <command>
     8a0:	fec42783          	lw	a5,-20(s0)
     8a4:	00f707b3          	add	a5,a4,a5
     8a8:	00078023          	sb	zero,0(a5)
     8ac:	fec42783          	lw	a5,-20(s0)
     8b0:	00178793          	addi	a5,a5,1
     8b4:	fef42623          	sw	a5,-20(s0)
     8b8:	fec42703          	lw	a4,-20(s0)
     8bc:	03f00793          	li	a5,63
     8c0:	fce7dce3          	bge	a5,a4,898 <putcom+0xe8>
     8c4:	0500006f          	j	914 <putcom+0x164>
     8c8:	fdf44783          	lbu	a5,-33(s0)
     8cc:	00078513          	mv	a0,a5
     8d0:	bbdff0ef          	jal	ra,48c <putch>
     8d4:	00100797          	auipc	a5,0x100
     8d8:	1e478793          	addi	a5,a5,484 # 100ab8 <cnt>
     8dc:	0007a783          	lw	a5,0(a5)
     8e0:	00100717          	auipc	a4,0x100
     8e4:	11070713          	addi	a4,a4,272 # 1009f0 <command>
     8e8:	00f707b3          	add	a5,a4,a5
     8ec:	fdf44703          	lbu	a4,-33(s0)
     8f0:	00e78023          	sb	a4,0(a5)
     8f4:	00100797          	auipc	a5,0x100
     8f8:	1c478793          	addi	a5,a5,452 # 100ab8 <cnt>
     8fc:	0007a783          	lw	a5,0(a5)
     900:	00178713          	addi	a4,a5,1
     904:	00100797          	auipc	a5,0x100
     908:	1b478793          	addi	a5,a5,436 # 100ab8 <cnt>
     90c:	00e7a023          	sw	a4,0(a5)
     910:	00000013          	nop
     914:	02c12083          	lw	ra,44(sp)
     918:	02812403          	lw	s0,40(sp)
     91c:	03010113          	addi	sp,sp,48
     920:	00008067          	ret

00000924 <readnum>:
     924:	fe010113          	addi	sp,sp,-32
     928:	00112e23          	sw	ra,28(sp)
     92c:	00812c23          	sw	s0,24(sp)
     930:	02010413          	addi	s0,sp,32
     934:	df9ff0ef          	jal	ra,72c <getch>
     938:	00050793          	mv	a5,a0
     93c:	fef407a3          	sb	a5,-17(s0)
     940:	fef44783          	lbu	a5,-17(s0)
     944:	00078513          	mv	a0,a5
     948:	b45ff0ef          	jal	ra,48c <putch>
     94c:	fe042423          	sw	zero,-24(s0)
     950:	01c0006f          	j	96c <readnum+0x48>
     954:	dd9ff0ef          	jal	ra,72c <getch>
     958:	00050793          	mv	a5,a0
     95c:	fef407a3          	sb	a5,-17(s0)
     960:	fef44783          	lbu	a5,-17(s0)
     964:	00078513          	mv	a0,a5
     968:	b25ff0ef          	jal	ra,48c <putch>
     96c:	fef44703          	lbu	a4,-17(s0)
     970:	02f00793          	li	a5,47
     974:	fee7f0e3          	bgeu	a5,a4,954 <readnum+0x30>
     978:	fef44703          	lbu	a4,-17(s0)
     97c:	03900793          	li	a5,57
     980:	fce7eae3          	bltu	a5,a4,954 <readnum+0x30>
     984:	0400006f          	j	9c4 <readnum+0xa0>
     988:	fe842783          	lw	a5,-24(s0)
     98c:	00179713          	slli	a4,a5,0x1
     990:	fe842783          	lw	a5,-24(s0)
     994:	00379793          	slli	a5,a5,0x3
     998:	00f70733          	add	a4,a4,a5
     99c:	fef44783          	lbu	a5,-17(s0)
     9a0:	00f707b3          	add	a5,a4,a5
     9a4:	fd078793          	addi	a5,a5,-48
     9a8:	fef42423          	sw	a5,-24(s0)
     9ac:	d81ff0ef          	jal	ra,72c <getch>
     9b0:	00050793          	mv	a5,a0
     9b4:	fef407a3          	sb	a5,-17(s0)
     9b8:	fef44783          	lbu	a5,-17(s0)
     9bc:	00078513          	mv	a0,a5
     9c0:	acdff0ef          	jal	ra,48c <putch>
     9c4:	fef44703          	lbu	a4,-17(s0)
     9c8:	02f00793          	li	a5,47
     9cc:	00e7f863          	bgeu	a5,a4,9dc <readnum+0xb8>
     9d0:	fef44703          	lbu	a4,-17(s0)
     9d4:	03900793          	li	a5,57
     9d8:	fae7f8e3          	bgeu	a5,a4,988 <readnum+0x64>
     9dc:	fe842783          	lw	a5,-24(s0)
     9e0:	00078513          	mv	a0,a5
     9e4:	01c12083          	lw	ra,28(sp)
     9e8:	01812403          	lw	s0,24(sp)
     9ec:	02010113          	addi	sp,sp,32
     9f0:	00008067          	ret

000009f4 <strlen>:
     9f4:	fd010113          	addi	sp,sp,-48
     9f8:	02812623          	sw	s0,44(sp)
     9fc:	03010413          	addi	s0,sp,48
     a00:	fca42e23          	sw	a0,-36(s0)
     a04:	fe042623          	sw	zero,-20(s0)
     a08:	fdc42783          	lw	a5,-36(s0)
     a0c:	fef42423          	sw	a5,-24(s0)
     a10:	01c0006f          	j	a2c <strlen+0x38>
     a14:	fec42783          	lw	a5,-20(s0)
     a18:	00178793          	addi	a5,a5,1
     a1c:	fef42623          	sw	a5,-20(s0)
     a20:	fe842783          	lw	a5,-24(s0)
     a24:	00178793          	addi	a5,a5,1
     a28:	fef42423          	sw	a5,-24(s0)
     a2c:	fe842783          	lw	a5,-24(s0)
     a30:	0007c783          	lbu	a5,0(a5)
     a34:	fe0790e3          	bnez	a5,a14 <strlen+0x20>
     a38:	fec42783          	lw	a5,-20(s0)
     a3c:	00078513          	mv	a0,a5
     a40:	02c12403          	lw	s0,44(sp)
     a44:	03010113          	addi	sp,sp,48
     a48:	00008067          	ret

00000a4c <memset>:
     a4c:	fd010113          	addi	sp,sp,-48
     a50:	02812623          	sw	s0,44(sp)
     a54:	03010413          	addi	s0,sp,48
     a58:	fca42e23          	sw	a0,-36(s0)
     a5c:	fcb42c23          	sw	a1,-40(s0)
     a60:	fcc42a23          	sw	a2,-44(s0)
     a64:	fdc42783          	lw	a5,-36(s0)
     a68:	fef42623          	sw	a5,-20(s0)
     a6c:	01c0006f          	j	a88 <memset+0x3c>
     a70:	fec42783          	lw	a5,-20(s0)
     a74:	00178713          	addi	a4,a5,1
     a78:	fee42623          	sw	a4,-20(s0)
     a7c:	fd842703          	lw	a4,-40(s0)
     a80:	0ff77713          	andi	a4,a4,255
     a84:	00e78023          	sb	a4,0(a5)
     a88:	fd442783          	lw	a5,-44(s0)
     a8c:	fff78713          	addi	a4,a5,-1
     a90:	fce42a23          	sw	a4,-44(s0)
     a94:	fc079ee3          	bnez	a5,a70 <memset+0x24>
     a98:	fdc42783          	lw	a5,-36(s0)
     a9c:	00078513          	mv	a0,a5
     aa0:	02c12403          	lw	s0,44(sp)
     aa4:	03010113          	addi	sp,sp,48
     aa8:	00008067          	ret

00000aac <strcmp>:
     aac:	fe010113          	addi	sp,sp,-32
     ab0:	00812e23          	sw	s0,28(sp)
     ab4:	02010413          	addi	s0,sp,32
     ab8:	fea42623          	sw	a0,-20(s0)
     abc:	feb42423          	sw	a1,-24(s0)
     ac0:	fec42783          	lw	a5,-20(s0)
     ac4:	0007c783          	lbu	a5,0(a5)
     ac8:	04078e63          	beqz	a5,b24 <strcmp+0x78>
     acc:	fe842783          	lw	a5,-24(s0)
     ad0:	0007c783          	lbu	a5,0(a5)
     ad4:	04078863          	beqz	a5,b24 <strcmp+0x78>
     ad8:	fec42783          	lw	a5,-20(s0)
     adc:	0007c703          	lbu	a4,0(a5)
     ae0:	fe842783          	lw	a5,-24(s0)
     ae4:	0007c783          	lbu	a5,0(a5)
     ae8:	02f71063          	bne	a4,a5,b08 <strcmp+0x5c>
     aec:	fec42783          	lw	a5,-20(s0)
     af0:	00178793          	addi	a5,a5,1
     af4:	fef42623          	sw	a5,-20(s0)
     af8:	fe842783          	lw	a5,-24(s0)
     afc:	00178793          	addi	a5,a5,1
     b00:	fef42423          	sw	a5,-24(s0)
     b04:	fbdff06f          	j	ac0 <strcmp+0x14>
     b08:	fec42783          	lw	a5,-20(s0)
     b0c:	0007c783          	lbu	a5,0(a5)
     b10:	00078713          	mv	a4,a5
     b14:	fe842783          	lw	a5,-24(s0)
     b18:	0007c783          	lbu	a5,0(a5)
     b1c:	40f707b3          	sub	a5,a4,a5
     b20:	0300006f          	j	b50 <strcmp+0xa4>
     b24:	fec42783          	lw	a5,-20(s0)
     b28:	0007c783          	lbu	a5,0(a5)
     b2c:	02079063          	bnez	a5,b4c <strcmp+0xa0>
     b30:	fe842783          	lw	a5,-24(s0)
     b34:	0007c783          	lbu	a5,0(a5)
     b38:	00079663          	bnez	a5,b44 <strcmp+0x98>
     b3c:	00000793          	li	a5,0
     b40:	0100006f          	j	b50 <strcmp+0xa4>
     b44:	fff00793          	li	a5,-1
     b48:	0080006f          	j	b50 <strcmp+0xa4>
     b4c:	00100793          	li	a5,1
     b50:	00078513          	mv	a0,a5
     b54:	01c12403          	lw	s0,28(sp)
     b58:	02010113          	addi	sp,sp,32
     b5c:	00008067          	ret

00000b60 <quit>:
     b60:	fd010113          	addi	sp,sp,-48
     b64:	02112623          	sw	ra,44(sp)
     b68:	02812423          	sw	s0,40(sp)
     b6c:	03010413          	addi	s0,sp,48
     b70:	fca42e23          	sw	a0,-36(s0)
     b74:	00a00513          	li	a0,10
     b78:	915ff0ef          	jal	ra,48c <putch>
     b7c:	fdc42783          	lw	a5,-36(s0)
     b80:	00079a63          	bnez	a5,b94 <quit+0x34>
     b84:	000ff517          	auipc	a0,0xff
     b88:	49050513          	addi	a0,a0,1168 # 100014 <_etext+0xfdc38>
     b8c:	b41ff0ef          	jal	ra,6cc <putstr>
     b90:	02c0006f          	j	bbc <quit+0x5c>
     b94:	000ff517          	auipc	a0,0xff
     b98:	49850513          	addi	a0,a0,1176 # 10002c <_etext+0xfdc50>
     b9c:	b31ff0ef          	jal	ra,6cc <putstr>
     ba0:	fdc42783          	lw	a5,-36(s0)
     ba4:	0ff7f793          	andi	a5,a5,255
     ba8:	00078513          	mv	a0,a5
     bac:	8e1ff0ef          	jal	ra,48c <putch>
     bb0:	000ff517          	auipc	a0,0xff
     bb4:	48450513          	addi	a0,a0,1156 # 100034 <_etext+0xfdc58>
     bb8:	b15ff0ef          	jal	ra,6cc <putstr>
     bbc:	fdc42783          	lw	a5,-36(s0)
     bc0:	00079c63          	bnez	a5,bd8 <quit+0x78>
     bc4:	b69ff0ef          	jal	ra,72c <getch>
     bc8:	00050793          	mv	a5,a0
     bcc:	fef407a3          	sb	a5,-17(s0)
     bd0:	00100793          	li	a5,1
     bd4:	0200006f          	j	bf4 <quit+0x94>
     bd8:	b55ff0ef          	jal	ra,72c <getch>
     bdc:	00050793          	mv	a5,a0
     be0:	fef407a3          	sb	a5,-17(s0)
     be4:	fef44783          	lbu	a5,-17(s0)
     be8:	fdc42703          	lw	a4,-36(s0)
     bec:	fcf718e3          	bne	a4,a5,bbc <quit+0x5c>
     bf0:	00100793          	li	a5,1
     bf4:	00078513          	mv	a0,a5
     bf8:	02c12083          	lw	ra,44(sp)
     bfc:	02812403          	lw	s0,40(sp)
     c00:	03010113          	addi	sp,sp,48
     c04:	00008067          	ret

00000c08 <abs>:
     c08:	fe010113          	addi	sp,sp,-32
     c0c:	00812e23          	sw	s0,28(sp)
     c10:	02010413          	addi	s0,sp,32
     c14:	fea42623          	sw	a0,-20(s0)
     c18:	fec42783          	lw	a5,-20(s0)
     c1c:	41f7d713          	srai	a4,a5,0x1f
     c20:	fec42783          	lw	a5,-20(s0)
     c24:	00f747b3          	xor	a5,a4,a5
     c28:	40e787b3          	sub	a5,a5,a4
     c2c:	00078513          	mv	a0,a5
     c30:	01c12403          	lw	s0,28(sp)
     c34:	02010113          	addi	sp,sp,32
     c38:	00008067          	ret

00000c3c <multi>:
     c3c:	fd010113          	addi	sp,sp,-48
     c40:	02812623          	sw	s0,44(sp)
     c44:	03010413          	addi	s0,sp,48
     c48:	fca42e23          	sw	a0,-36(s0)
     c4c:	fcb42c23          	sw	a1,-40(s0)
     c50:	fdc42783          	lw	a5,-36(s0)
     c54:	41f7d793          	srai	a5,a5,0x1f
     c58:	fdc42703          	lw	a4,-36(s0)
     c5c:	00e7c733          	xor	a4,a5,a4
     c60:	40f707b3          	sub	a5,a4,a5
     c64:	fef42623          	sw	a5,-20(s0)
     c68:	fd842783          	lw	a5,-40(s0)
     c6c:	41f7d793          	srai	a5,a5,0x1f
     c70:	fd842703          	lw	a4,-40(s0)
     c74:	00e7c733          	xor	a4,a5,a4
     c78:	40f707b3          	sub	a5,a4,a5
     c7c:	fef42423          	sw	a5,-24(s0)
     c80:	fe042223          	sw	zero,-28(s0)
     c84:	0380006f          	j	cbc <multi+0x80>
     c88:	fe842783          	lw	a5,-24(s0)
     c8c:	0017f793          	andi	a5,a5,1
     c90:	00078a63          	beqz	a5,ca4 <multi+0x68>
     c94:	fe442703          	lw	a4,-28(s0)
     c98:	fec42783          	lw	a5,-20(s0)
     c9c:	00f707b3          	add	a5,a4,a5
     ca0:	fef42223          	sw	a5,-28(s0)
     ca4:	fec42783          	lw	a5,-20(s0)
     ca8:	00179793          	slli	a5,a5,0x1
     cac:	fef42623          	sw	a5,-20(s0)
     cb0:	fe842783          	lw	a5,-24(s0)
     cb4:	4017d793          	srai	a5,a5,0x1
     cb8:	fef42423          	sw	a5,-24(s0)
     cbc:	fe842783          	lw	a5,-24(s0)
     cc0:	fc0794e3          	bnez	a5,c88 <multi+0x4c>
     cc4:	fdc42703          	lw	a4,-36(s0)
     cc8:	fd842783          	lw	a5,-40(s0)
     ccc:	00f747b3          	xor	a5,a4,a5
     cd0:	0007d863          	bgez	a5,ce0 <multi+0xa4>
     cd4:	fe442783          	lw	a5,-28(s0)
     cd8:	40f007b3          	neg	a5,a5
     cdc:	fef42223          	sw	a5,-28(s0)
     ce0:	fe442783          	lw	a5,-28(s0)
     ce4:	00078513          	mv	a0,a5
     ce8:	02c12403          	lw	s0,44(sp)
     cec:	03010113          	addi	sp,sp,48
     cf0:	00008067          	ret

00000cf4 <bitlength>:
     cf4:	fd010113          	addi	sp,sp,-48
     cf8:	02812623          	sw	s0,44(sp)
     cfc:	03010413          	addi	s0,sp,48
     d00:	fca42e23          	sw	a0,-36(s0)
     d04:	fe042623          	sw	zero,-20(s0)
     d08:	01c0006f          	j	d24 <bitlength+0x30>
     d0c:	fec42783          	lw	a5,-20(s0)
     d10:	00178793          	addi	a5,a5,1
     d14:	fef42623          	sw	a5,-20(s0)
     d18:	fdc42783          	lw	a5,-36(s0)
     d1c:	4017d793          	srai	a5,a5,0x1
     d20:	fcf42e23          	sw	a5,-36(s0)
     d24:	fdc42783          	lw	a5,-36(s0)
     d28:	fe0792e3          	bnez	a5,d0c <bitlength+0x18>
     d2c:	fec42783          	lw	a5,-20(s0)
     d30:	00078513          	mv	a0,a5
     d34:	02c12403          	lw	s0,44(sp)
     d38:	03010113          	addi	sp,sp,48
     d3c:	00008067          	ret

00000d40 <lengthdiff>:
     d40:	fe010113          	addi	sp,sp,-32
     d44:	00112e23          	sw	ra,28(sp)
     d48:	00812c23          	sw	s0,24(sp)
     d4c:	00912a23          	sw	s1,20(sp)
     d50:	02010413          	addi	s0,sp,32
     d54:	fea42623          	sw	a0,-20(s0)
     d58:	feb42423          	sw	a1,-24(s0)
     d5c:	fec42503          	lw	a0,-20(s0)
     d60:	f95ff0ef          	jal	ra,cf4 <bitlength>
     d64:	00050493          	mv	s1,a0
     d68:	fe842503          	lw	a0,-24(s0)
     d6c:	f89ff0ef          	jal	ra,cf4 <bitlength>
     d70:	00050793          	mv	a5,a0
     d74:	40f487b3          	sub	a5,s1,a5
     d78:	00078513          	mv	a0,a5
     d7c:	01c12083          	lw	ra,28(sp)
     d80:	01812403          	lw	s0,24(sp)
     d84:	01412483          	lw	s1,20(sp)
     d88:	02010113          	addi	sp,sp,32
     d8c:	00008067          	ret

00000d90 <div>:
     d90:	fc010113          	addi	sp,sp,-64
     d94:	02112e23          	sw	ra,60(sp)
     d98:	02812c23          	sw	s0,56(sp)
     d9c:	04010413          	addi	s0,sp,64
     da0:	fca42623          	sw	a0,-52(s0)
     da4:	fcb42423          	sw	a1,-56(s0)
     da8:	fcc42783          	lw	a5,-52(s0)
     dac:	41f7d793          	srai	a5,a5,0x1f
     db0:	fcc42703          	lw	a4,-52(s0)
     db4:	00e7c733          	xor	a4,a5,a4
     db8:	40f707b3          	sub	a5,a4,a5
     dbc:	fef42623          	sw	a5,-20(s0)
     dc0:	fc842783          	lw	a5,-56(s0)
     dc4:	41f7d793          	srai	a5,a5,0x1f
     dc8:	fc842703          	lw	a4,-56(s0)
     dcc:	00e7c733          	xor	a4,a5,a4
     dd0:	40f707b3          	sub	a5,a4,a5
     dd4:	fef42023          	sw	a5,-32(s0)
     dd8:	fe042423          	sw	zero,-24(s0)
     ddc:	fe042583          	lw	a1,-32(s0)
     de0:	fec42503          	lw	a0,-20(s0)
     de4:	f5dff0ef          	jal	ra,d40 <lengthdiff>
     de8:	fea42223          	sw	a0,-28(s0)
     dec:	0540006f          	j	e40 <div+0xb0>
     df0:	fe442783          	lw	a5,-28(s0)
     df4:	fe042703          	lw	a4,-32(s0)
     df8:	00f717b3          	sll	a5,a4,a5
     dfc:	fcf42e23          	sw	a5,-36(s0)
     e00:	fdc42703          	lw	a4,-36(s0)
     e04:	fec42783          	lw	a5,-20(s0)
     e08:	02e7c663          	blt	a5,a4,e34 <div+0xa4>
     e0c:	fe442783          	lw	a5,-28(s0)
     e10:	00100713          	li	a4,1
     e14:	00f717b3          	sll	a5,a4,a5
     e18:	fe842703          	lw	a4,-24(s0)
     e1c:	00f767b3          	or	a5,a4,a5
     e20:	fef42423          	sw	a5,-24(s0)
     e24:	fec42703          	lw	a4,-20(s0)
     e28:	fdc42783          	lw	a5,-36(s0)
     e2c:	40f707b3          	sub	a5,a4,a5
     e30:	fef42623          	sw	a5,-20(s0)
     e34:	fe442783          	lw	a5,-28(s0)
     e38:	fff78793          	addi	a5,a5,-1
     e3c:	fef42223          	sw	a5,-28(s0)
     e40:	fe442783          	lw	a5,-28(s0)
     e44:	fa07d6e3          	bgez	a5,df0 <div+0x60>
     e48:	fcc42703          	lw	a4,-52(s0)
     e4c:	fc842783          	lw	a5,-56(s0)
     e50:	00f747b3          	xor	a5,a4,a5
     e54:	0007d863          	bgez	a5,e64 <div+0xd4>
     e58:	fe842783          	lw	a5,-24(s0)
     e5c:	40f007b3          	neg	a5,a5
     e60:	fef42423          	sw	a5,-24(s0)
     e64:	fe842783          	lw	a5,-24(s0)
     e68:	00078513          	mv	a0,a5
     e6c:	03c12083          	lw	ra,60(sp)
     e70:	03812403          	lw	s0,56(sp)
     e74:	04010113          	addi	sp,sp,64
     e78:	00008067          	ret

00000e7c <mod>:
     e7c:	fd010113          	addi	sp,sp,-48
     e80:	02112623          	sw	ra,44(sp)
     e84:	02812423          	sw	s0,40(sp)
     e88:	03010413          	addi	s0,sp,48
     e8c:	fca42e23          	sw	a0,-36(s0)
     e90:	fcb42c23          	sw	a1,-40(s0)
     e94:	fdc42783          	lw	a5,-36(s0)
     e98:	41f7d793          	srai	a5,a5,0x1f
     e9c:	fdc42703          	lw	a4,-36(s0)
     ea0:	00e7c733          	xor	a4,a5,a4
     ea4:	40f707b3          	sub	a5,a4,a5
     ea8:	fef42623          	sw	a5,-20(s0)
     eac:	fd842783          	lw	a5,-40(s0)
     eb0:	41f7d793          	srai	a5,a5,0x1f
     eb4:	fd842703          	lw	a4,-40(s0)
     eb8:	00e7c733          	xor	a4,a5,a4
     ebc:	40f707b3          	sub	a5,a4,a5
     ec0:	fef42223          	sw	a5,-28(s0)
     ec4:	fe442583          	lw	a1,-28(s0)
     ec8:	fec42503          	lw	a0,-20(s0)
     ecc:	e75ff0ef          	jal	ra,d40 <lengthdiff>
     ed0:	fea42423          	sw	a0,-24(s0)
     ed4:	03c0006f          	j	f10 <mod+0x94>
     ed8:	fe842783          	lw	a5,-24(s0)
     edc:	fe442703          	lw	a4,-28(s0)
     ee0:	00f717b3          	sll	a5,a4,a5
     ee4:	fef42023          	sw	a5,-32(s0)
     ee8:	fe042703          	lw	a4,-32(s0)
     eec:	fec42783          	lw	a5,-20(s0)
     ef0:	00e7ca63          	blt	a5,a4,f04 <mod+0x88>
     ef4:	fec42703          	lw	a4,-20(s0)
     ef8:	fe042783          	lw	a5,-32(s0)
     efc:	40f707b3          	sub	a5,a4,a5
     f00:	fef42623          	sw	a5,-20(s0)
     f04:	fe842783          	lw	a5,-24(s0)
     f08:	fff78793          	addi	a5,a5,-1
     f0c:	fef42423          	sw	a5,-24(s0)
     f10:	fe842783          	lw	a5,-24(s0)
     f14:	fc07d2e3          	bgez	a5,ed8 <mod+0x5c>
     f18:	fdc42783          	lw	a5,-36(s0)
     f1c:	0007d863          	bgez	a5,f2c <mod+0xb0>
     f20:	fec42783          	lw	a5,-20(s0)
     f24:	40f007b3          	neg	a5,a5
     f28:	fef42623          	sw	a5,-20(s0)
     f2c:	fec42783          	lw	a5,-20(s0)
     f30:	00078513          	mv	a0,a5
     f34:	02c12083          	lw	ra,44(sp)
     f38:	02812403          	lw	s0,40(sp)
     f3c:	03010113          	addi	sp,sp,48
     f40:	00008067          	ret

00000f44 <putnum>:
     f44:	f5010113          	addi	sp,sp,-176
     f48:	0a112623          	sw	ra,172(sp)
     f4c:	0a812423          	sw	s0,168(sp)
     f50:	0a912223          	sw	s1,164(sp)
     f54:	0b010413          	addi	s0,sp,176
     f58:	f4a42e23          	sw	a0,-164(s0)
     f5c:	f5c42783          	lw	a5,-164(s0)
     f60:	00079863          	bnez	a5,f70 <putnum+0x2c>
     f64:	03000513          	li	a0,48
     f68:	d24ff0ef          	jal	ra,48c <putch>
     f6c:	0c40006f          	j	1030 <putnum+0xec>
     f70:	f5c42783          	lw	a5,-164(s0)
     f74:	0007d663          	bgez	a5,f80 <putnum+0x3c>
     f78:	02d00513          	li	a0,45
     f7c:	d10ff0ef          	jal	ra,48c <putch>
     f80:	f5c42783          	lw	a5,-164(s0)
     f84:	41f7d793          	srai	a5,a5,0x1f
     f88:	f5c42703          	lw	a4,-164(s0)
     f8c:	00f74733          	xor	a4,a4,a5
     f90:	40f707b3          	sub	a5,a4,a5
     f94:	f4f42e23          	sw	a5,-164(s0)
     f98:	fe042623          	sw	zero,-20(s0)
     f9c:	0400006f          	j	fdc <putnum+0x98>
     fa0:	fec42483          	lw	s1,-20(s0)
     fa4:	00148793          	addi	a5,s1,1
     fa8:	fef42623          	sw	a5,-20(s0)
     fac:	00a00593          	li	a1,10
     fb0:	f5c42503          	lw	a0,-164(s0)
     fb4:	ec9ff0ef          	jal	ra,e7c <mod>
     fb8:	00050713          	mv	a4,a0
     fbc:	00249793          	slli	a5,s1,0x2
     fc0:	ff040693          	addi	a3,s0,-16
     fc4:	00f687b3          	add	a5,a3,a5
     fc8:	f6e7ae23          	sw	a4,-132(a5)
     fcc:	00a00593          	li	a1,10
     fd0:	f5c42503          	lw	a0,-164(s0)
     fd4:	dbdff0ef          	jal	ra,d90 <div>
     fd8:	f4a42e23          	sw	a0,-164(s0)
     fdc:	f5c42783          	lw	a5,-164(s0)
     fe0:	fc0790e3          	bnez	a5,fa0 <putnum+0x5c>
     fe4:	fec42783          	lw	a5,-20(s0)
     fe8:	fff78793          	addi	a5,a5,-1
     fec:	fef42623          	sw	a5,-20(s0)
     ff0:	0380006f          	j	1028 <putnum+0xe4>
     ff4:	fec42783          	lw	a5,-20(s0)
     ff8:	00279793          	slli	a5,a5,0x2
     ffc:	ff040713          	addi	a4,s0,-16
    1000:	00f707b3          	add	a5,a4,a5
    1004:	f7c7a783          	lw	a5,-132(a5)
    1008:	0ff7f793          	andi	a5,a5,255
    100c:	03078793          	addi	a5,a5,48
    1010:	0ff7f793          	andi	a5,a5,255
    1014:	00078513          	mv	a0,a5
    1018:	c74ff0ef          	jal	ra,48c <putch>
    101c:	fec42783          	lw	a5,-20(s0)
    1020:	fff78793          	addi	a5,a5,-1
    1024:	fef42623          	sw	a5,-20(s0)
    1028:	fec42783          	lw	a5,-20(s0)
    102c:	fc07d4e3          	bgez	a5,ff4 <putnum+0xb0>
    1030:	0ac12083          	lw	ra,172(sp)
    1034:	0a812403          	lw	s0,168(sp)
    1038:	0a412483          	lw	s1,164(sp)
    103c:	0b010113          	addi	sp,sp,176
    1040:	00008067          	ret

00001044 <sort>:
    1044:	f5010113          	addi	sp,sp,-176
    1048:	0a112623          	sw	ra,172(sp)
    104c:	0a812423          	sw	s0,168(sp)
    1050:	0b010413          	addi	s0,sp,176
    1054:	fe042623          	sw	zero,-20(s0)
    1058:	fec42783          	lw	a5,-20(s0)
    105c:	f5840713          	addi	a4,s0,-168
    1060:	00f707b3          	add	a5,a4,a5
    1064:	00078513          	mv	a0,a5
    1068:	ec4ff0ef          	jal	ra,72c <getch>
    106c:	00050793          	mv	a5,a0
    1070:	fcf40da3          	sb	a5,-37(s0)
    1074:	fdb44703          	lbu	a4,-37(s0)
    1078:	00800793          	li	a5,8
    107c:	02f71463          	bne	a4,a5,10a4 <sort+0x60>
    1080:	fdb44783          	lbu	a5,-37(s0)
    1084:	00078513          	mv	a0,a5
    1088:	c04ff0ef          	jal	ra,48c <putch>
    108c:	fec42783          	lw	a5,-20(s0)
    1090:	00f05a63          	blez	a5,10a4 <sort+0x60>
    1094:	fec42783          	lw	a5,-20(s0)
    1098:	fff78793          	addi	a5,a5,-1
    109c:	fef42623          	sw	a5,-20(s0)
    10a0:	0400006f          	j	10e0 <sort+0x9c>
    10a4:	fdb44703          	lbu	a4,-37(s0)
    10a8:	00d00793          	li	a5,13
    10ac:	02f71463          	bne	a4,a5,10d4 <sort+0x90>
    10b0:	fec42783          	lw	a5,-20(s0)
    10b4:	ff040713          	addi	a4,s0,-16
    10b8:	00f707b3          	add	a5,a4,a5
    10bc:	f6078423          	sb	zero,-152(a5)
    10c0:	00000013          	nop
    10c4:	fe042423          	sw	zero,-24(s0)
    10c8:	fe042223          	sw	zero,-28(s0)
    10cc:	fe042023          	sw	zero,-32(s0)
    10d0:	0d40006f          	j	11a4 <sort+0x160>
    10d4:	fec42783          	lw	a5,-20(s0)
    10d8:	00178793          	addi	a5,a5,1
    10dc:	fef42623          	sw	a5,-20(s0)
    10e0:	f79ff06f          	j	1058 <sort+0x14>
    10e4:	fe042783          	lw	a5,-32(s0)
    10e8:	ff040713          	addi	a4,s0,-16
    10ec:	00f707b3          	add	a5,a4,a5
    10f0:	f687c703          	lbu	a4,-152(a5)
    10f4:	02f00793          	li	a5,47
    10f8:	08e7f263          	bgeu	a5,a4,117c <sort+0x138>
    10fc:	fe042783          	lw	a5,-32(s0)
    1100:	ff040713          	addi	a4,s0,-16
    1104:	00f707b3          	add	a5,a4,a5
    1108:	f687c703          	lbu	a4,-152(a5)
    110c:	03900793          	li	a5,57
    1110:	06e7e663          	bltu	a5,a4,117c <sort+0x138>
    1114:	00100717          	auipc	a4,0x100
    1118:	91c70713          	addi	a4,a4,-1764 # 100a30 <arr>
    111c:	fe442783          	lw	a5,-28(s0)
    1120:	00279793          	slli	a5,a5,0x2
    1124:	00f707b3          	add	a5,a4,a5
    1128:	0007a703          	lw	a4,0(a5)
    112c:	00070793          	mv	a5,a4
    1130:	00279793          	slli	a5,a5,0x2
    1134:	00e787b3          	add	a5,a5,a4
    1138:	00179793          	slli	a5,a5,0x1
    113c:	00078713          	mv	a4,a5
    1140:	fe042783          	lw	a5,-32(s0)
    1144:	ff040693          	addi	a3,s0,-16
    1148:	00f687b3          	add	a5,a3,a5
    114c:	f687c783          	lbu	a5,-152(a5)
    1150:	fd078793          	addi	a5,a5,-48
    1154:	00f70733          	add	a4,a4,a5
    1158:	00100697          	auipc	a3,0x100
    115c:	8d868693          	addi	a3,a3,-1832 # 100a30 <arr>
    1160:	fe442783          	lw	a5,-28(s0)
    1164:	00279793          	slli	a5,a5,0x2
    1168:	00f687b3          	add	a5,a3,a5
    116c:	00e7a023          	sw	a4,0(a5)
    1170:	00100793          	li	a5,1
    1174:	fef42423          	sw	a5,-24(s0)
    1178:	0200006f          	j	1198 <sort+0x154>
    117c:	fe842703          	lw	a4,-24(s0)
    1180:	00100793          	li	a5,1
    1184:	00f71863          	bne	a4,a5,1194 <sort+0x150>
    1188:	fe442783          	lw	a5,-28(s0)
    118c:	00178793          	addi	a5,a5,1
    1190:	fef42223          	sw	a5,-28(s0)
    1194:	fe042423          	sw	zero,-24(s0)
    1198:	fe042783          	lw	a5,-32(s0)
    119c:	00178793          	addi	a5,a5,1
    11a0:	fef42023          	sw	a5,-32(s0)
    11a4:	fe042703          	lw	a4,-32(s0)
    11a8:	fec42783          	lw	a5,-20(s0)
    11ac:	f2e7dce3          	bge	a5,a4,10e4 <sort+0xa0>
    11b0:	ec5fe0ef          	jal	ra,74 <addline>
    11b4:	fe442583          	lw	a1,-28(s0)
    11b8:	00100517          	auipc	a0,0x100
    11bc:	87850513          	addi	a0,a0,-1928 # 100a30 <arr>
    11c0:	59d000ef          	jal	ra,1f5c <bubble_sort>
    11c4:	fc042e23          	sw	zero,-36(s0)
    11c8:	0380006f          	j	1200 <sort+0x1bc>
    11cc:	00100717          	auipc	a4,0x100
    11d0:	86470713          	addi	a4,a4,-1948 # 100a30 <arr>
    11d4:	fdc42783          	lw	a5,-36(s0)
    11d8:	00279793          	slli	a5,a5,0x2
    11dc:	00f707b3          	add	a5,a4,a5
    11e0:	0007a783          	lw	a5,0(a5)
    11e4:	00078513          	mv	a0,a5
    11e8:	d5dff0ef          	jal	ra,f44 <putnum>
    11ec:	02000513          	li	a0,32
    11f0:	a9cff0ef          	jal	ra,48c <putch>
    11f4:	fdc42783          	lw	a5,-36(s0)
    11f8:	00178793          	addi	a5,a5,1
    11fc:	fcf42e23          	sw	a5,-36(s0)
    1200:	fdc42703          	lw	a4,-36(s0)
    1204:	fe442783          	lw	a5,-28(s0)
    1208:	fcf742e3          	blt	a4,a5,11cc <sort+0x188>
    120c:	00a00513          	li	a0,10
    1210:	a7cff0ef          	jal	ra,48c <putch>
    1214:	00000013          	nop
    1218:	0ac12083          	lw	ra,172(sp)
    121c:	0a812403          	lw	s0,168(sp)
    1220:	0b010113          	addi	sp,sp,176
    1224:	00008067          	ret

00001228 <help>:
    1228:	ff010113          	addi	sp,sp,-16
    122c:	00112623          	sw	ra,12(sp)
    1230:	00812423          	sw	s0,8(sp)
    1234:	01010413          	addi	s0,sp,16
    1238:	000ff517          	auipc	a0,0xff
    123c:	e0450513          	addi	a0,a0,-508 # 10003c <_etext+0xfdc60>
    1240:	c8cff0ef          	jal	ra,6cc <putstr>
    1244:	000ff517          	auipc	a0,0xff
    1248:	e3050513          	addi	a0,a0,-464 # 100074 <_etext+0xfdc98>
    124c:	c80ff0ef          	jal	ra,6cc <putstr>
    1250:	000ff517          	auipc	a0,0xff
    1254:	e4450513          	addi	a0,a0,-444 # 100094 <_etext+0xfdcb8>
    1258:	c74ff0ef          	jal	ra,6cc <putstr>
    125c:	000ff517          	auipc	a0,0xff
    1260:	e5050513          	addi	a0,a0,-432 # 1000ac <_etext+0xfdcd0>
    1264:	c68ff0ef          	jal	ra,6cc <putstr>
    1268:	000ff517          	auipc	a0,0xff
    126c:	e5c50513          	addi	a0,a0,-420 # 1000c4 <_etext+0xfdce8>
    1270:	c5cff0ef          	jal	ra,6cc <putstr>
    1274:	000ff517          	auipc	a0,0xff
    1278:	e7050513          	addi	a0,a0,-400 # 1000e4 <_etext+0xfdd08>
    127c:	c50ff0ef          	jal	ra,6cc <putstr>
    1280:	000ff517          	auipc	a0,0xff
    1284:	e8850513          	addi	a0,a0,-376 # 100108 <_etext+0xfdd2c>
    1288:	c44ff0ef          	jal	ra,6cc <putstr>
    128c:	000ff517          	auipc	a0,0xff
    1290:	e9c50513          	addi	a0,a0,-356 # 100128 <_etext+0xfdd4c>
    1294:	c38ff0ef          	jal	ra,6cc <putstr>
    1298:	000ff517          	auipc	a0,0xff
    129c:	eb050513          	addi	a0,a0,-336 # 100148 <_etext+0xfdd6c>
    12a0:	c2cff0ef          	jal	ra,6cc <putstr>
    12a4:	000ff517          	auipc	a0,0xff
    12a8:	ecc50513          	addi	a0,a0,-308 # 100170 <_etext+0xfdd94>
    12ac:	c20ff0ef          	jal	ra,6cc <putstr>
    12b0:	00000013          	nop
    12b4:	00c12083          	lw	ra,12(sp)
    12b8:	00812403          	lw	s0,8(sp)
    12bc:	01010113          	addi	sp,sp,16
    12c0:	00008067          	ret

000012c4 <get_time>:
    12c4:	ff010113          	addi	sp,sp,-16
    12c8:	00812623          	sw	s0,12(sp)
    12cc:	01010413          	addi	s0,sp,16
    12d0:	004007b7          	lui	a5,0x400
    12d4:	0007a783          	lw	a5,0(a5) # 400000 <_end+0x2ff000>
    12d8:	00078513          	mv	a0,a5
    12dc:	00c12403          	lw	s0,12(sp)
    12e0:	01010113          	addi	sp,sp,16
    12e4:	00008067          	ret

000012e8 <rand>:
    12e8:	fd010113          	addi	sp,sp,-48
    12ec:	02112623          	sw	ra,44(sp)
    12f0:	02812423          	sw	s0,40(sp)
    12f4:	03010413          	addi	s0,sp,48
    12f8:	fcdff0ef          	jal	ra,12c4 <get_time>
    12fc:	fea42623          	sw	a0,-20(s0)
    1300:	001967b7          	lui	a5,0x196
    1304:	60d78793          	addi	a5,a5,1549 # 19660d <_end+0x9560d>
    1308:	fef42423          	sw	a5,-24(s0)
    130c:	3c6ef7b7          	lui	a5,0x3c6ef
    1310:	35f78793          	addi	a5,a5,863 # 3c6ef35f <_end+0x3c5ee35f>
    1314:	fef42223          	sw	a5,-28(s0)
    1318:	fff00793          	li	a5,-1
    131c:	fef42023          	sw	a5,-32(s0)
    1320:	fe842783          	lw	a5,-24(s0)
    1324:	fec42703          	lw	a4,-20(s0)
    1328:	00070593          	mv	a1,a4
    132c:	00078513          	mv	a0,a5
    1330:	90dff0ef          	jal	ra,c3c <multi>
    1334:	00050793          	mv	a5,a0
    1338:	00078713          	mv	a4,a5
    133c:	fe442783          	lw	a5,-28(s0)
    1340:	00f707b3          	add	a5,a4,a5
    1344:	00078713          	mv	a4,a5
    1348:	fe042783          	lw	a5,-32(s0)
    134c:	00078593          	mv	a1,a5
    1350:	00070513          	mv	a0,a4
    1354:	b29ff0ef          	jal	ra,e7c <mod>
    1358:	00050793          	mv	a5,a0
    135c:	fcf42e23          	sw	a5,-36(s0)
    1360:	fdc42783          	lw	a5,-36(s0)
    1364:	00078513          	mv	a0,a5
    1368:	02c12083          	lw	ra,44(sp)
    136c:	02812403          	lw	s0,40(sp)
    1370:	03010113          	addi	sp,sp,48
    1374:	00008067          	ret

00001378 <time>:
    1378:	fe010113          	addi	sp,sp,-32
    137c:	00112e23          	sw	ra,28(sp)
    1380:	00812c23          	sw	s0,24(sp)
    1384:	02010413          	addi	s0,sp,32
    1388:	f3dff0ef          	jal	ra,12c4 <get_time>
    138c:	00050793          	mv	a5,a0
    1390:	fef42623          	sw	a5,-20(s0)
    1394:	3e800593          	li	a1,1000
    1398:	fec42503          	lw	a0,-20(s0)
    139c:	9f5ff0ef          	jal	ra,d90 <div>
    13a0:	fea42623          	sw	a0,-20(s0)
    13a4:	03c00593          	li	a1,60
    13a8:	fec42503          	lw	a0,-20(s0)
    13ac:	ad1ff0ef          	jal	ra,e7c <mod>
    13b0:	fea42423          	sw	a0,-24(s0)
    13b4:	03c00593          	li	a1,60
    13b8:	fec42503          	lw	a0,-20(s0)
    13bc:	9d5ff0ef          	jal	ra,d90 <div>
    13c0:	fea42623          	sw	a0,-20(s0)
    13c4:	03c00593          	li	a1,60
    13c8:	fec42503          	lw	a0,-20(s0)
    13cc:	ab1ff0ef          	jal	ra,e7c <mod>
    13d0:	fea42223          	sw	a0,-28(s0)
    13d4:	03c00593          	li	a1,60
    13d8:	fec42503          	lw	a0,-20(s0)
    13dc:	9b5ff0ef          	jal	ra,d90 <div>
    13e0:	fea42623          	sw	a0,-20(s0)
    13e4:	03c00593          	li	a1,60
    13e8:	fec42503          	lw	a0,-20(s0)
    13ec:	a91ff0ef          	jal	ra,e7c <mod>
    13f0:	fea42023          	sw	a0,-32(s0)
    13f4:	fe042503          	lw	a0,-32(s0)
    13f8:	b4dff0ef          	jal	ra,f44 <putnum>
    13fc:	02000513          	li	a0,32
    1400:	88cff0ef          	jal	ra,48c <putch>
    1404:	000ff517          	auipc	a0,0xff
    1408:	58450513          	addi	a0,a0,1412 # 100988 <hour>
    140c:	ac0ff0ef          	jal	ra,6cc <putstr>
    1410:	02000513          	li	a0,32
    1414:	878ff0ef          	jal	ra,48c <putch>
    1418:	fe442503          	lw	a0,-28(s0)
    141c:	b29ff0ef          	jal	ra,f44 <putnum>
    1420:	02000513          	li	a0,32
    1424:	868ff0ef          	jal	ra,48c <putch>
    1428:	000ff517          	auipc	a0,0xff
    142c:	56c50513          	addi	a0,a0,1388 # 100994 <minute>
    1430:	a9cff0ef          	jal	ra,6cc <putstr>
    1434:	02000513          	li	a0,32
    1438:	854ff0ef          	jal	ra,48c <putch>
    143c:	fe842503          	lw	a0,-24(s0)
    1440:	b05ff0ef          	jal	ra,f44 <putnum>
    1444:	02000513          	li	a0,32
    1448:	844ff0ef          	jal	ra,48c <putch>
    144c:	000ff517          	auipc	a0,0xff
    1450:	55450513          	addi	a0,a0,1364 # 1009a0 <second>
    1454:	a78ff0ef          	jal	ra,6cc <putstr>
    1458:	00a00513          	li	a0,10
    145c:	830ff0ef          	jal	ra,48c <putch>
    1460:	00000013          	nop
    1464:	01c12083          	lw	ra,28(sp)
    1468:	01812403          	lw	s0,24(sp)
    146c:	02010113          	addi	sp,sp,32
    1470:	00008067          	ret

00001474 <match_fib>:
    1474:	fd010113          	addi	sp,sp,-48
    1478:	02812623          	sw	s0,44(sp)
    147c:	03010413          	addi	s0,sp,48
    1480:	fca42e23          	sw	a0,-36(s0)
    1484:	fe042623          	sw	zero,-20(s0)
    1488:	fe042423          	sw	zero,-24(s0)
    148c:	1040006f          	j	1590 <match_fib+0x11c>
    1490:	000ff717          	auipc	a4,0xff
    1494:	53870713          	addi	a4,a4,1336 # 1009c8 <comfib>
    1498:	fe842783          	lw	a5,-24(s0)
    149c:	00f707b3          	add	a5,a4,a5
    14a0:	0007c783          	lbu	a5,0(a5)
    14a4:	0a079663          	bnez	a5,1550 <match_fib+0xdc>
    14a8:	fe842783          	lw	a5,-24(s0)
    14ac:	fdc42703          	lw	a4,-36(s0)
    14b0:	00f707b3          	add	a5,a4,a5
    14b4:	0007c703          	lbu	a4,0(a5)
    14b8:	02000793          	li	a5,32
    14bc:	08f71a63          	bne	a4,a5,1550 <match_fib+0xdc>
    14c0:	fe842783          	lw	a5,-24(s0)
    14c4:	00178793          	addi	a5,a5,1
    14c8:	fef42223          	sw	a5,-28(s0)
    14cc:	0780006f          	j	1544 <match_fib+0xd0>
    14d0:	fe842783          	lw	a5,-24(s0)
    14d4:	fdc42703          	lw	a4,-36(s0)
    14d8:	00f707b3          	add	a5,a4,a5
    14dc:	0007c703          	lbu	a4,0(a5)
    14e0:	02f00793          	li	a5,47
    14e4:	00e7fe63          	bgeu	a5,a4,1500 <match_fib+0x8c>
    14e8:	fe842783          	lw	a5,-24(s0)
    14ec:	fdc42703          	lw	a4,-36(s0)
    14f0:	00f707b3          	add	a5,a4,a5
    14f4:	0007c703          	lbu	a4,0(a5)
    14f8:	03900793          	li	a5,57
    14fc:	00e7f663          	bgeu	a5,a4,1508 <match_fib+0x94>
    1500:	fec42783          	lw	a5,-20(s0)
    1504:	09c0006f          	j	15a0 <match_fib+0x12c>
    1508:	fec42783          	lw	a5,-20(s0)
    150c:	00179713          	slli	a4,a5,0x1
    1510:	fec42783          	lw	a5,-20(s0)
    1514:	00379793          	slli	a5,a5,0x3
    1518:	00f707b3          	add	a5,a4,a5
    151c:	fe842703          	lw	a4,-24(s0)
    1520:	fdc42683          	lw	a3,-36(s0)
    1524:	00e68733          	add	a4,a3,a4
    1528:	00074703          	lbu	a4,0(a4)
    152c:	00e787b3          	add	a5,a5,a4
    1530:	fd078793          	addi	a5,a5,-48
    1534:	fef42623          	sw	a5,-20(s0)
    1538:	fe442783          	lw	a5,-28(s0)
    153c:	00178793          	addi	a5,a5,1
    1540:	fef42223          	sw	a5,-28(s0)
    1544:	fe442703          	lw	a4,-28(s0)
    1548:	04f00793          	li	a5,79
    154c:	f8e7d2e3          	bge	a5,a4,14d0 <match_fib+0x5c>
    1550:	fe842783          	lw	a5,-24(s0)
    1554:	fdc42703          	lw	a4,-36(s0)
    1558:	00f707b3          	add	a5,a4,a5
    155c:	0007c703          	lbu	a4,0(a5)
    1560:	000ff697          	auipc	a3,0xff
    1564:	46868693          	addi	a3,a3,1128 # 1009c8 <comfib>
    1568:	fe842783          	lw	a5,-24(s0)
    156c:	00f687b3          	add	a5,a3,a5
    1570:	0007c783          	lbu	a5,0(a5)
    1574:	00f71a63          	bne	a4,a5,1588 <match_fib+0x114>
    1578:	fe842783          	lw	a5,-24(s0)
    157c:	00178793          	addi	a5,a5,1
    1580:	fef42423          	sw	a5,-24(s0)
    1584:	00c0006f          	j	1590 <match_fib+0x11c>
    1588:	00000793          	li	a5,0
    158c:	0140006f          	j	15a0 <match_fib+0x12c>
    1590:	fe842703          	lw	a4,-24(s0)
    1594:	04f00793          	li	a5,79
    1598:	eee7dce3          	bge	a5,a4,1490 <match_fib+0x1c>
    159c:	00000793          	li	a5,0
    15a0:	00078513          	mv	a0,a5
    15a4:	02c12403          	lw	s0,44(sp)
    15a8:	03010113          	addi	sp,sp,48
    15ac:	00008067          	ret

000015b0 <fib>:
    15b0:	e4010113          	addi	sp,sp,-448
    15b4:	1a112e23          	sw	ra,444(sp)
    15b8:	1a812c23          	sw	s0,440(sp)
    15bc:	1c010413          	addi	s0,sp,448
    15c0:	e4a42623          	sw	a0,-436(s0)
    15c4:	e4c42703          	lw	a4,-436(s0)
    15c8:	06400793          	li	a5,100
    15cc:	00e7da63          	bge	a5,a4,15e0 <fib+0x30>
    15d0:	000ff517          	auipc	a0,0xff
    15d4:	bd850513          	addi	a0,a0,-1064 # 1001a8 <_etext+0xfddcc>
    15d8:	8f4ff0ef          	jal	ra,6cc <putstr>
    15dc:	0c40006f          	j	16a0 <fib+0xf0>
    15e0:	e5840793          	addi	a5,s0,-424
    15e4:	19400713          	li	a4,404
    15e8:	00070613          	mv	a2,a4
    15ec:	00000593          	li	a1,0
    15f0:	00078513          	mv	a0,a5
    15f4:	c58ff0ef          	jal	ra,a4c <memset>
    15f8:	00100793          	li	a5,1
    15fc:	e4f42e23          	sw	a5,-420(s0)
    1600:	00100793          	li	a5,1
    1604:	e6f42023          	sw	a5,-416(s0)
    1608:	00300793          	li	a5,3
    160c:	fef42623          	sw	a5,-20(s0)
    1610:	0580006f          	j	1668 <fib+0xb8>
    1614:	fec42783          	lw	a5,-20(s0)
    1618:	fff78793          	addi	a5,a5,-1
    161c:	00279793          	slli	a5,a5,0x2
    1620:	ff040713          	addi	a4,s0,-16
    1624:	00f707b3          	add	a5,a4,a5
    1628:	e687a703          	lw	a4,-408(a5)
    162c:	fec42783          	lw	a5,-20(s0)
    1630:	ffe78793          	addi	a5,a5,-2
    1634:	00279793          	slli	a5,a5,0x2
    1638:	ff040693          	addi	a3,s0,-16
    163c:	00f687b3          	add	a5,a3,a5
    1640:	e687a783          	lw	a5,-408(a5)
    1644:	00f70733          	add	a4,a4,a5
    1648:	fec42783          	lw	a5,-20(s0)
    164c:	00279793          	slli	a5,a5,0x2
    1650:	ff040693          	addi	a3,s0,-16
    1654:	00f687b3          	add	a5,a3,a5
    1658:	e6e7a423          	sw	a4,-408(a5)
    165c:	fec42783          	lw	a5,-20(s0)
    1660:	00178793          	addi	a5,a5,1
    1664:	fef42623          	sw	a5,-20(s0)
    1668:	fec42703          	lw	a4,-20(s0)
    166c:	e4c42783          	lw	a5,-436(s0)
    1670:	fae7d2e3          	bge	a5,a4,1614 <fib+0x64>
    1674:	000ff517          	auipc	a0,0xff
    1678:	b4850513          	addi	a0,a0,-1208 # 1001bc <_etext+0xfdde0>
    167c:	850ff0ef          	jal	ra,6cc <putstr>
    1680:	e4c42783          	lw	a5,-436(s0)
    1684:	00279793          	slli	a5,a5,0x2
    1688:	ff040713          	addi	a4,s0,-16
    168c:	00f707b3          	add	a5,a4,a5
    1690:	e687a783          	lw	a5,-408(a5)
    1694:	00078513          	mv	a0,a5
    1698:	8adff0ef          	jal	ra,f44 <putnum>
    169c:	00000013          	nop
    16a0:	1bc12083          	lw	ra,444(sp)
    16a4:	1b812403          	lw	s0,440(sp)
    16a8:	1c010113          	addi	sp,sp,448
    16ac:	00008067          	ret

000016b0 <generateRandomNumber>:
    16b0:	fe010113          	addi	sp,sp,-32
    16b4:	00112e23          	sw	ra,28(sp)
    16b8:	00812c23          	sw	s0,24(sp)
    16bc:	02010413          	addi	s0,sp,32
    16c0:	fea42623          	sw	a0,-20(s0)
    16c4:	feb42423          	sw	a1,-24(s0)
    16c8:	c21ff0ef          	jal	ra,12e8 <rand>
    16cc:	00050793          	mv	a5,a0
    16d0:	00078693          	mv	a3,a5
    16d4:	fe842703          	lw	a4,-24(s0)
    16d8:	fec42783          	lw	a5,-20(s0)
    16dc:	40f707b3          	sub	a5,a4,a5
    16e0:	00178793          	addi	a5,a5,1
    16e4:	00078593          	mv	a1,a5
    16e8:	00068513          	mv	a0,a3
    16ec:	f90ff0ef          	jal	ra,e7c <mod>
    16f0:	00050713          	mv	a4,a0
    16f4:	fec42783          	lw	a5,-20(s0)
    16f8:	00f707b3          	add	a5,a4,a5
    16fc:	00078513          	mv	a0,a5
    1700:	01c12083          	lw	ra,28(sp)
    1704:	01812403          	lw	s0,24(sp)
    1708:	02010113          	addi	sp,sp,32
    170c:	00008067          	ret

00001710 <playGuessNumberGame>:
    1710:	fd010113          	addi	sp,sp,-48
    1714:	02112623          	sw	ra,44(sp)
    1718:	02812423          	sw	s0,40(sp)
    171c:	03010413          	addi	s0,sp,48
    1720:	00100793          	li	a5,1
    1724:	fef42423          	sw	a5,-24(s0)
    1728:	06400793          	li	a5,100
    172c:	fef42223          	sw	a5,-28(s0)
    1730:	fe442583          	lw	a1,-28(s0)
    1734:	fe842503          	lw	a0,-24(s0)
    1738:	f79ff0ef          	jal	ra,16b0 <generateRandomNumber>
    173c:	fea42023          	sw	a0,-32(s0)
    1740:	fe042623          	sw	zero,-20(s0)
    1744:	fc042e23          	sw	zero,-36(s0)
    1748:	a51fe0ef          	jal	ra,198 <vga_clear>
    174c:	000ff517          	auipc	a0,0xff
    1750:	a8050513          	addi	a0,a0,-1408 # 1001cc <_etext+0xfddf0>
    1754:	f79fe0ef          	jal	ra,6cc <putstr>
    1758:	000ff517          	auipc	a0,0xff
    175c:	a9450513          	addi	a0,a0,-1388 # 1001ec <_etext+0xfde10>
    1760:	f6dfe0ef          	jal	ra,6cc <putstr>
    1764:	fe842503          	lw	a0,-24(s0)
    1768:	fdcff0ef          	jal	ra,f44 <putnum>
    176c:	02d00513          	li	a0,45
    1770:	d1dfe0ef          	jal	ra,48c <putch>
    1774:	fe442503          	lw	a0,-28(s0)
    1778:	fccff0ef          	jal	ra,f44 <putnum>
    177c:	00a00513          	li	a0,10
    1780:	d0dfe0ef          	jal	ra,48c <putch>
    1784:	000ff517          	auipc	a0,0xff
    1788:	a8c50513          	addi	a0,a0,-1396 # 100210 <_etext+0xfde34>
    178c:	f41fe0ef          	jal	ra,6cc <putstr>
    1790:	994ff0ef          	jal	ra,924 <readnum>
    1794:	fca42c23          	sw	a0,-40(s0)
    1798:	00a00513          	li	a0,10
    179c:	cf1fe0ef          	jal	ra,48c <putch>
    17a0:	fec42783          	lw	a5,-20(s0)
    17a4:	00178793          	addi	a5,a5,1
    17a8:	fef42623          	sw	a5,-20(s0)
    17ac:	fd842703          	lw	a4,-40(s0)
    17b0:	0001c7b7          	lui	a5,0x1c
    17b4:	f5278793          	addi	a5,a5,-174 # 1bf52 <_etext+0x19b76>
    17b8:	00f71e63          	bne	a4,a5,17d4 <playGuessNumberGame+0xc4>
    17bc:	fe042503          	lw	a0,-32(s0)
    17c0:	f84ff0ef          	jal	ra,f44 <putnum>
    17c4:	00a00513          	li	a0,10
    17c8:	cc5fe0ef          	jal	ra,48c <putch>
    17cc:	349000ef          	jal	ra,2314 <foo>
    17d0:	0780006f          	j	1848 <playGuessNumberGame+0x138>
    17d4:	fd842703          	lw	a4,-40(s0)
    17d8:	fe042783          	lw	a5,-32(s0)
    17dc:	04f71263          	bne	a4,a5,1820 <playGuessNumberGame+0x110>
    17e0:	000ff517          	auipc	a0,0xff
    17e4:	a4c50513          	addi	a0,a0,-1460 # 10022c <_etext+0xfde50>
    17e8:	ee5fe0ef          	jal	ra,6cc <putstr>
    17ec:	fec42503          	lw	a0,-20(s0)
    17f0:	f54ff0ef          	jal	ra,f44 <putnum>
    17f4:	fec42703          	lw	a4,-20(s0)
    17f8:	00100793          	li	a5,1
    17fc:	00e7da63          	bge	a5,a4,1810 <playGuessNumberGame+0x100>
    1800:	000ff517          	auipc	a0,0xff
    1804:	a4850513          	addi	a0,a0,-1464 # 100248 <_etext+0xfde6c>
    1808:	ec5fe0ef          	jal	ra,6cc <putstr>
    180c:	0500006f          	j	185c <playGuessNumberGame+0x14c>
    1810:	000ff517          	auipc	a0,0xff
    1814:	a4050513          	addi	a0,a0,-1472 # 100250 <_etext+0xfde74>
    1818:	eb5fe0ef          	jal	ra,6cc <putstr>
    181c:	0400006f          	j	185c <playGuessNumberGame+0x14c>
    1820:	fd842703          	lw	a4,-40(s0)
    1824:	fe042783          	lw	a5,-32(s0)
    1828:	00f75a63          	bge	a4,a5,183c <playGuessNumberGame+0x12c>
    182c:	000ff517          	auipc	a0,0xff
    1830:	a2c50513          	addi	a0,a0,-1492 # 100258 <_etext+0xfde7c>
    1834:	e99fe0ef          	jal	ra,6cc <putstr>
    1838:	0100006f          	j	1848 <playGuessNumberGame+0x138>
    183c:	000ff517          	auipc	a0,0xff
    1840:	a2850513          	addi	a0,a0,-1496 # 100264 <_etext+0xfde88>
    1844:	e89fe0ef          	jal	ra,6cc <putstr>
    1848:	fd842703          	lw	a4,-40(s0)
    184c:	fe042783          	lw	a5,-32(s0)
    1850:	f2f71ae3          	bne	a4,a5,1784 <playGuessNumberGame+0x74>
    1854:	00000513          	li	a0,0
    1858:	b08ff0ef          	jal	ra,b60 <quit>
    185c:	02c12083          	lw	ra,44(sp)
    1860:	02812403          	lw	s0,40(sp)
    1864:	03010113          	addi	sp,sp,48
    1868:	00008067          	ret

0000186c <__mulsi3>:
    186c:	fd010113          	addi	sp,sp,-48
    1870:	02812623          	sw	s0,44(sp)
    1874:	03010413          	addi	s0,sp,48
    1878:	fca42e23          	sw	a0,-36(s0)
    187c:	fcb42c23          	sw	a1,-40(s0)
    1880:	fe042623          	sw	zero,-20(s0)
    1884:	0380006f          	j	18bc <__mulsi3+0x50>
    1888:	fdc42783          	lw	a5,-36(s0)
    188c:	0017f793          	andi	a5,a5,1
    1890:	00078a63          	beqz	a5,18a4 <__mulsi3+0x38>
    1894:	fec42703          	lw	a4,-20(s0)
    1898:	fd842783          	lw	a5,-40(s0)
    189c:	00f707b3          	add	a5,a4,a5
    18a0:	fef42623          	sw	a5,-20(s0)
    18a4:	fdc42783          	lw	a5,-36(s0)
    18a8:	0017d793          	srli	a5,a5,0x1
    18ac:	fcf42e23          	sw	a5,-36(s0)
    18b0:	fd842783          	lw	a5,-40(s0)
    18b4:	00179793          	slli	a5,a5,0x1
    18b8:	fcf42c23          	sw	a5,-40(s0)
    18bc:	fdc42783          	lw	a5,-36(s0)
    18c0:	fc0794e3          	bnez	a5,1888 <__mulsi3+0x1c>
    18c4:	fec42783          	lw	a5,-20(s0)
    18c8:	00078513          	mv	a0,a5
    18cc:	02c12403          	lw	s0,44(sp)
    18d0:	03010113          	addi	sp,sp,48
    18d4:	00008067          	ret

000018d8 <__modsi3>:
    18d8:	fd010113          	addi	sp,sp,-48
    18dc:	02812623          	sw	s0,44(sp)
    18e0:	03010413          	addi	s0,sp,48
    18e4:	fca42e23          	sw	a0,-36(s0)
    18e8:	fcb42c23          	sw	a1,-40(s0)
    18ec:	00100793          	li	a5,1
    18f0:	fef42623          	sw	a5,-20(s0)
    18f4:	fe042423          	sw	zero,-24(s0)
    18f8:	01c0006f          	j	1914 <__modsi3+0x3c>
    18fc:	fd842783          	lw	a5,-40(s0)
    1900:	00179793          	slli	a5,a5,0x1
    1904:	fcf42c23          	sw	a5,-40(s0)
    1908:	fec42783          	lw	a5,-20(s0)
    190c:	00179793          	slli	a5,a5,0x1
    1910:	fef42623          	sw	a5,-20(s0)
    1914:	fd842703          	lw	a4,-40(s0)
    1918:	fdc42783          	lw	a5,-36(s0)
    191c:	04f75e63          	bge	a4,a5,1978 <__modsi3+0xa0>
    1920:	fec42783          	lw	a5,-20(s0)
    1924:	04078a63          	beqz	a5,1978 <__modsi3+0xa0>
    1928:	fd842783          	lw	a5,-40(s0)
    192c:	fc07d8e3          	bgez	a5,18fc <__modsi3+0x24>
    1930:	0480006f          	j	1978 <__modsi3+0xa0>
    1934:	fdc42703          	lw	a4,-36(s0)
    1938:	fd842783          	lw	a5,-40(s0)
    193c:	02f74263          	blt	a4,a5,1960 <__modsi3+0x88>
    1940:	fdc42703          	lw	a4,-36(s0)
    1944:	fd842783          	lw	a5,-40(s0)
    1948:	40f707b3          	sub	a5,a4,a5
    194c:	fcf42e23          	sw	a5,-36(s0)
    1950:	fe842703          	lw	a4,-24(s0)
    1954:	fec42783          	lw	a5,-20(s0)
    1958:	00f767b3          	or	a5,a4,a5
    195c:	fef42423          	sw	a5,-24(s0)
    1960:	fec42783          	lw	a5,-20(s0)
    1964:	4017d793          	srai	a5,a5,0x1
    1968:	fef42623          	sw	a5,-20(s0)
    196c:	fd842783          	lw	a5,-40(s0)
    1970:	4017d793          	srai	a5,a5,0x1
    1974:	fcf42c23          	sw	a5,-40(s0)
    1978:	fec42783          	lw	a5,-20(s0)
    197c:	fa079ce3          	bnez	a5,1934 <__modsi3+0x5c>
    1980:	fdc42783          	lw	a5,-36(s0)
    1984:	00078513          	mv	a0,a5
    1988:	02c12403          	lw	s0,44(sp)
    198c:	03010113          	addi	sp,sp,48
    1990:	00008067          	ret

00001994 <__divsi3>:
    1994:	fd010113          	addi	sp,sp,-48
    1998:	02812623          	sw	s0,44(sp)
    199c:	03010413          	addi	s0,sp,48
    19a0:	fca42e23          	sw	a0,-36(s0)
    19a4:	fcb42c23          	sw	a1,-40(s0)
    19a8:	00100793          	li	a5,1
    19ac:	fef42623          	sw	a5,-20(s0)
    19b0:	fe042423          	sw	zero,-24(s0)
    19b4:	01c0006f          	j	19d0 <__divsi3+0x3c>
    19b8:	fd842783          	lw	a5,-40(s0)
    19bc:	00179793          	slli	a5,a5,0x1
    19c0:	fcf42c23          	sw	a5,-40(s0)
    19c4:	fec42783          	lw	a5,-20(s0)
    19c8:	00179793          	slli	a5,a5,0x1
    19cc:	fef42623          	sw	a5,-20(s0)
    19d0:	fd842703          	lw	a4,-40(s0)
    19d4:	fdc42783          	lw	a5,-36(s0)
    19d8:	04f75e63          	bge	a4,a5,1a34 <__divsi3+0xa0>
    19dc:	fec42783          	lw	a5,-20(s0)
    19e0:	04078a63          	beqz	a5,1a34 <__divsi3+0xa0>
    19e4:	fd842783          	lw	a5,-40(s0)
    19e8:	fc07d8e3          	bgez	a5,19b8 <__divsi3+0x24>
    19ec:	0480006f          	j	1a34 <__divsi3+0xa0>
    19f0:	fdc42703          	lw	a4,-36(s0)
    19f4:	fd842783          	lw	a5,-40(s0)
    19f8:	02f74263          	blt	a4,a5,1a1c <__divsi3+0x88>
    19fc:	fdc42703          	lw	a4,-36(s0)
    1a00:	fd842783          	lw	a5,-40(s0)
    1a04:	40f707b3          	sub	a5,a4,a5
    1a08:	fcf42e23          	sw	a5,-36(s0)
    1a0c:	fe842703          	lw	a4,-24(s0)
    1a10:	fec42783          	lw	a5,-20(s0)
    1a14:	00f767b3          	or	a5,a4,a5
    1a18:	fef42423          	sw	a5,-24(s0)
    1a1c:	fec42783          	lw	a5,-20(s0)
    1a20:	4017d793          	srai	a5,a5,0x1
    1a24:	fef42623          	sw	a5,-20(s0)
    1a28:	fd842783          	lw	a5,-40(s0)
    1a2c:	4017d793          	srai	a5,a5,0x1
    1a30:	fcf42c23          	sw	a5,-40(s0)
    1a34:	fec42783          	lw	a5,-20(s0)
    1a38:	fa079ce3          	bnez	a5,19f0 <__divsi3+0x5c>
    1a3c:	fe842783          	lw	a5,-24(s0)
    1a40:	00078513          	mv	a0,a5
    1a44:	02c12403          	lw	s0,44(sp)
    1a48:	03010113          	addi	sp,sp,48
    1a4c:	00008067          	ret

00001a50 <__umodsi3>:
    1a50:	fd010113          	addi	sp,sp,-48
    1a54:	02812623          	sw	s0,44(sp)
    1a58:	03010413          	addi	s0,sp,48
    1a5c:	fca42e23          	sw	a0,-36(s0)
    1a60:	fcb42c23          	sw	a1,-40(s0)
    1a64:	00100793          	li	a5,1
    1a68:	fef42623          	sw	a5,-20(s0)
    1a6c:	fe042423          	sw	zero,-24(s0)
    1a70:	01c0006f          	j	1a8c <__umodsi3+0x3c>
    1a74:	fd842783          	lw	a5,-40(s0)
    1a78:	00179793          	slli	a5,a5,0x1
    1a7c:	fcf42c23          	sw	a5,-40(s0)
    1a80:	fec42783          	lw	a5,-20(s0)
    1a84:	00179793          	slli	a5,a5,0x1
    1a88:	fef42623          	sw	a5,-20(s0)
    1a8c:	fd842703          	lw	a4,-40(s0)
    1a90:	fdc42783          	lw	a5,-36(s0)
    1a94:	04f77e63          	bgeu	a4,a5,1af0 <__umodsi3+0xa0>
    1a98:	fec42783          	lw	a5,-20(s0)
    1a9c:	04078a63          	beqz	a5,1af0 <__umodsi3+0xa0>
    1aa0:	fd842783          	lw	a5,-40(s0)
    1aa4:	fc07d8e3          	bgez	a5,1a74 <__umodsi3+0x24>
    1aa8:	0480006f          	j	1af0 <__umodsi3+0xa0>
    1aac:	fdc42703          	lw	a4,-36(s0)
    1ab0:	fd842783          	lw	a5,-40(s0)
    1ab4:	02f76263          	bltu	a4,a5,1ad8 <__umodsi3+0x88>
    1ab8:	fdc42703          	lw	a4,-36(s0)
    1abc:	fd842783          	lw	a5,-40(s0)
    1ac0:	40f707b3          	sub	a5,a4,a5
    1ac4:	fcf42e23          	sw	a5,-36(s0)
    1ac8:	fe842703          	lw	a4,-24(s0)
    1acc:	fec42783          	lw	a5,-20(s0)
    1ad0:	00f767b3          	or	a5,a4,a5
    1ad4:	fef42423          	sw	a5,-24(s0)
    1ad8:	fec42783          	lw	a5,-20(s0)
    1adc:	0017d793          	srli	a5,a5,0x1
    1ae0:	fef42623          	sw	a5,-20(s0)
    1ae4:	fd842783          	lw	a5,-40(s0)
    1ae8:	0017d793          	srli	a5,a5,0x1
    1aec:	fcf42c23          	sw	a5,-40(s0)
    1af0:	fec42783          	lw	a5,-20(s0)
    1af4:	fa079ce3          	bnez	a5,1aac <__umodsi3+0x5c>
    1af8:	fdc42783          	lw	a5,-36(s0)
    1afc:	00078513          	mv	a0,a5
    1b00:	02c12403          	lw	s0,44(sp)
    1b04:	03010113          	addi	sp,sp,48
    1b08:	00008067          	ret

00001b0c <__udivsi3>:
    1b0c:	fd010113          	addi	sp,sp,-48
    1b10:	02812623          	sw	s0,44(sp)
    1b14:	03010413          	addi	s0,sp,48
    1b18:	fca42e23          	sw	a0,-36(s0)
    1b1c:	fcb42c23          	sw	a1,-40(s0)
    1b20:	00100793          	li	a5,1
    1b24:	fef42623          	sw	a5,-20(s0)
    1b28:	fe042423          	sw	zero,-24(s0)
    1b2c:	01c0006f          	j	1b48 <__udivsi3+0x3c>
    1b30:	fd842783          	lw	a5,-40(s0)
    1b34:	00179793          	slli	a5,a5,0x1
    1b38:	fcf42c23          	sw	a5,-40(s0)
    1b3c:	fec42783          	lw	a5,-20(s0)
    1b40:	00179793          	slli	a5,a5,0x1
    1b44:	fef42623          	sw	a5,-20(s0)
    1b48:	fd842703          	lw	a4,-40(s0)
    1b4c:	fdc42783          	lw	a5,-36(s0)
    1b50:	04f77e63          	bgeu	a4,a5,1bac <__udivsi3+0xa0>
    1b54:	fec42783          	lw	a5,-20(s0)
    1b58:	04078a63          	beqz	a5,1bac <__udivsi3+0xa0>
    1b5c:	fd842783          	lw	a5,-40(s0)
    1b60:	fc07d8e3          	bgez	a5,1b30 <__udivsi3+0x24>
    1b64:	0480006f          	j	1bac <__udivsi3+0xa0>
    1b68:	fdc42703          	lw	a4,-36(s0)
    1b6c:	fd842783          	lw	a5,-40(s0)
    1b70:	02f76263          	bltu	a4,a5,1b94 <__udivsi3+0x88>
    1b74:	fdc42703          	lw	a4,-36(s0)
    1b78:	fd842783          	lw	a5,-40(s0)
    1b7c:	40f707b3          	sub	a5,a4,a5
    1b80:	fcf42e23          	sw	a5,-36(s0)
    1b84:	fe842703          	lw	a4,-24(s0)
    1b88:	fec42783          	lw	a5,-20(s0)
    1b8c:	00f767b3          	or	a5,a4,a5
    1b90:	fef42423          	sw	a5,-24(s0)
    1b94:	fec42783          	lw	a5,-20(s0)
    1b98:	0017d793          	srli	a5,a5,0x1
    1b9c:	fef42623          	sw	a5,-20(s0)
    1ba0:	fd842783          	lw	a5,-40(s0)
    1ba4:	0017d793          	srli	a5,a5,0x1
    1ba8:	fcf42c23          	sw	a5,-40(s0)
    1bac:	fec42783          	lw	a5,-20(s0)
    1bb0:	fa079ce3          	bnez	a5,1b68 <__udivsi3+0x5c>
    1bb4:	fe842783          	lw	a5,-24(s0)
    1bb8:	00078513          	mv	a0,a5
    1bbc:	02c12403          	lw	s0,44(sp)
    1bc0:	03010113          	addi	sp,sp,48
    1bc4:	00008067          	ret

00001bc8 <_long_divsi3>:
    1bc8:	fd010113          	addi	sp,sp,-48
    1bcc:	02812623          	sw	s0,44(sp)
    1bd0:	03010413          	addi	s0,sp,48
    1bd4:	fca42c23          	sw	a0,-40(s0)
    1bd8:	fcb42e23          	sw	a1,-36(s0)
    1bdc:	fcc42a23          	sw	a2,-44(s0)
    1be0:	00100713          	li	a4,1
    1be4:	00000793          	li	a5,0
    1be8:	fee42423          	sw	a4,-24(s0)
    1bec:	fef42623          	sw	a5,-20(s0)
    1bf0:	00000713          	li	a4,0
    1bf4:	00000793          	li	a5,0
    1bf8:	fee42023          	sw	a4,-32(s0)
    1bfc:	fef42223          	sw	a5,-28(s0)
    1c00:	0340006f          	j	1c34 <_long_divsi3+0x6c>
    1c04:	fd442783          	lw	a5,-44(s0)
    1c08:	00179793          	slli	a5,a5,0x1
    1c0c:	fcf42a23          	sw	a5,-44(s0)
    1c10:	fe842783          	lw	a5,-24(s0)
    1c14:	01f7d793          	srli	a5,a5,0x1f
    1c18:	fec42703          	lw	a4,-20(s0)
    1c1c:	00171713          	slli	a4,a4,0x1
    1c20:	00f767b3          	or	a5,a4,a5
    1c24:	fef42623          	sw	a5,-20(s0)
    1c28:	fe842783          	lw	a5,-24(s0)
    1c2c:	00179793          	slli	a5,a5,0x1
    1c30:	fef42423          	sw	a5,-24(s0)
    1c34:	fd442783          	lw	a5,-44(s0)
    1c38:	00078e13          	mv	t3,a5
    1c3c:	41f7d793          	srai	a5,a5,0x1f
    1c40:	00078e93          	mv	t4,a5
    1c44:	fdc42783          	lw	a5,-36(s0)
    1c48:	000e8713          	mv	a4,t4
    1c4c:	00f74e63          	blt	a4,a5,1c68 <_long_divsi3+0xa0>
    1c50:	fdc42783          	lw	a5,-36(s0)
    1c54:	000e8713          	mv	a4,t4
    1c58:	0ee79463          	bne	a5,a4,1d40 <_long_divsi3+0x178>
    1c5c:	fd842783          	lw	a5,-40(s0)
    1c60:	000e0713          	mv	a4,t3
    1c64:	00f77e63          	bgeu	a4,a5,1c80 <_long_divsi3+0xb8>
    1c68:	fe842783          	lw	a5,-24(s0)
    1c6c:	fec42703          	lw	a4,-20(s0)
    1c70:	00e7e7b3          	or	a5,a5,a4
    1c74:	0c078663          	beqz	a5,1d40 <_long_divsi3+0x178>
    1c78:	fd442783          	lw	a5,-44(s0)
    1c7c:	f807d4e3          	bgez	a5,1c04 <_long_divsi3+0x3c>
    1c80:	0c00006f          	j	1d40 <_long_divsi3+0x178>
    1c84:	fd442783          	lw	a5,-44(s0)
    1c88:	00078313          	mv	t1,a5
    1c8c:	41f7d793          	srai	a5,a5,0x1f
    1c90:	00078393          	mv	t2,a5
    1c94:	fdc42783          	lw	a5,-36(s0)
    1c98:	00038713          	mv	a4,t2
    1c9c:	06e7ca63          	blt	a5,a4,1d10 <_long_divsi3+0x148>
    1ca0:	fdc42783          	lw	a5,-36(s0)
    1ca4:	00038713          	mv	a4,t2
    1ca8:	00e79863          	bne	a5,a4,1cb8 <_long_divsi3+0xf0>
    1cac:	fd842783          	lw	a5,-40(s0)
    1cb0:	00030713          	mv	a4,t1
    1cb4:	04e7ee63          	bltu	a5,a4,1d10 <_long_divsi3+0x148>
    1cb8:	fd442783          	lw	a5,-44(s0)
    1cbc:	00078813          	mv	a6,a5
    1cc0:	41f7d793          	srai	a5,a5,0x1f
    1cc4:	00078893          	mv	a7,a5
    1cc8:	fd842603          	lw	a2,-40(s0)
    1ccc:	fdc42683          	lw	a3,-36(s0)
    1cd0:	41060733          	sub	a4,a2,a6
    1cd4:	00070593          	mv	a1,a4
    1cd8:	00b635b3          	sltu	a1,a2,a1
    1cdc:	411687b3          	sub	a5,a3,a7
    1ce0:	40b786b3          	sub	a3,a5,a1
    1ce4:	00068793          	mv	a5,a3
    1ce8:	fce42c23          	sw	a4,-40(s0)
    1cec:	fcf42e23          	sw	a5,-36(s0)
    1cf0:	fe042703          	lw	a4,-32(s0)
    1cf4:	fe842783          	lw	a5,-24(s0)
    1cf8:	00f767b3          	or	a5,a4,a5
    1cfc:	fef42023          	sw	a5,-32(s0)
    1d00:	fe442703          	lw	a4,-28(s0)
    1d04:	fec42783          	lw	a5,-20(s0)
    1d08:	00f767b3          	or	a5,a4,a5
    1d0c:	fef42223          	sw	a5,-28(s0)
    1d10:	fec42783          	lw	a5,-20(s0)
    1d14:	01f79793          	slli	a5,a5,0x1f
    1d18:	fe842703          	lw	a4,-24(s0)
    1d1c:	00175713          	srli	a4,a4,0x1
    1d20:	00f767b3          	or	a5,a4,a5
    1d24:	fef42423          	sw	a5,-24(s0)
    1d28:	fec42783          	lw	a5,-20(s0)
    1d2c:	4017d793          	srai	a5,a5,0x1
    1d30:	fef42623          	sw	a5,-20(s0)
    1d34:	fd442783          	lw	a5,-44(s0)
    1d38:	4017d793          	srai	a5,a5,0x1
    1d3c:	fcf42a23          	sw	a5,-44(s0)
    1d40:	fe842783          	lw	a5,-24(s0)
    1d44:	fec42703          	lw	a4,-20(s0)
    1d48:	00e7e7b3          	or	a5,a5,a4
    1d4c:	f2079ce3          	bnez	a5,1c84 <_long_divsi3+0xbc>
    1d50:	fe042703          	lw	a4,-32(s0)
    1d54:	fe442783          	lw	a5,-28(s0)
    1d58:	00070513          	mv	a0,a4
    1d5c:	00078593          	mv	a1,a5
    1d60:	02c12403          	lw	s0,44(sp)
    1d64:	03010113          	addi	sp,sp,48
    1d68:	00008067          	ret

00001d6c <_long_modsi3>:
    1d6c:	fd010113          	addi	sp,sp,-48
    1d70:	02812623          	sw	s0,44(sp)
    1d74:	03010413          	addi	s0,sp,48
    1d78:	fca42c23          	sw	a0,-40(s0)
    1d7c:	fcb42e23          	sw	a1,-36(s0)
    1d80:	fcc42a23          	sw	a2,-44(s0)
    1d84:	00100713          	li	a4,1
    1d88:	00000793          	li	a5,0
    1d8c:	fee42423          	sw	a4,-24(s0)
    1d90:	fef42623          	sw	a5,-20(s0)
    1d94:	00000713          	li	a4,0
    1d98:	00000793          	li	a5,0
    1d9c:	fee42023          	sw	a4,-32(s0)
    1da0:	fef42223          	sw	a5,-28(s0)
    1da4:	0340006f          	j	1dd8 <_long_modsi3+0x6c>
    1da8:	fd442783          	lw	a5,-44(s0)
    1dac:	00179793          	slli	a5,a5,0x1
    1db0:	fcf42a23          	sw	a5,-44(s0)
    1db4:	fe842783          	lw	a5,-24(s0)
    1db8:	01f7d793          	srli	a5,a5,0x1f
    1dbc:	fec42703          	lw	a4,-20(s0)
    1dc0:	00171713          	slli	a4,a4,0x1
    1dc4:	00f767b3          	or	a5,a4,a5
    1dc8:	fef42623          	sw	a5,-20(s0)
    1dcc:	fe842783          	lw	a5,-24(s0)
    1dd0:	00179793          	slli	a5,a5,0x1
    1dd4:	fef42423          	sw	a5,-24(s0)
    1dd8:	fd442783          	lw	a5,-44(s0)
    1ddc:	00078e13          	mv	t3,a5
    1de0:	41f7d793          	srai	a5,a5,0x1f
    1de4:	00078e93          	mv	t4,a5
    1de8:	fdc42783          	lw	a5,-36(s0)
    1dec:	000e8713          	mv	a4,t4
    1df0:	00f74e63          	blt	a4,a5,1e0c <_long_modsi3+0xa0>
    1df4:	fdc42783          	lw	a5,-36(s0)
    1df8:	000e8713          	mv	a4,t4
    1dfc:	0ee79463          	bne	a5,a4,1ee4 <_long_modsi3+0x178>
    1e00:	fd842783          	lw	a5,-40(s0)
    1e04:	000e0713          	mv	a4,t3
    1e08:	00f77e63          	bgeu	a4,a5,1e24 <_long_modsi3+0xb8>
    1e0c:	fe842783          	lw	a5,-24(s0)
    1e10:	fec42703          	lw	a4,-20(s0)
    1e14:	00e7e7b3          	or	a5,a5,a4
    1e18:	0c078663          	beqz	a5,1ee4 <_long_modsi3+0x178>
    1e1c:	fd442783          	lw	a5,-44(s0)
    1e20:	f807d4e3          	bgez	a5,1da8 <_long_modsi3+0x3c>
    1e24:	0c00006f          	j	1ee4 <_long_modsi3+0x178>
    1e28:	fd442783          	lw	a5,-44(s0)
    1e2c:	00078313          	mv	t1,a5
    1e30:	41f7d793          	srai	a5,a5,0x1f
    1e34:	00078393          	mv	t2,a5
    1e38:	fdc42783          	lw	a5,-36(s0)
    1e3c:	00038713          	mv	a4,t2
    1e40:	06e7ca63          	blt	a5,a4,1eb4 <_long_modsi3+0x148>
    1e44:	fdc42783          	lw	a5,-36(s0)
    1e48:	00038713          	mv	a4,t2
    1e4c:	00e79863          	bne	a5,a4,1e5c <_long_modsi3+0xf0>
    1e50:	fd842783          	lw	a5,-40(s0)
    1e54:	00030713          	mv	a4,t1
    1e58:	04e7ee63          	bltu	a5,a4,1eb4 <_long_modsi3+0x148>
    1e5c:	fd442783          	lw	a5,-44(s0)
    1e60:	00078813          	mv	a6,a5
    1e64:	41f7d793          	srai	a5,a5,0x1f
    1e68:	00078893          	mv	a7,a5
    1e6c:	fd842603          	lw	a2,-40(s0)
    1e70:	fdc42683          	lw	a3,-36(s0)
    1e74:	41060733          	sub	a4,a2,a6
    1e78:	00070593          	mv	a1,a4
    1e7c:	00b635b3          	sltu	a1,a2,a1
    1e80:	411687b3          	sub	a5,a3,a7
    1e84:	40b786b3          	sub	a3,a5,a1
    1e88:	00068793          	mv	a5,a3
    1e8c:	fce42c23          	sw	a4,-40(s0)
    1e90:	fcf42e23          	sw	a5,-36(s0)
    1e94:	fe042703          	lw	a4,-32(s0)
    1e98:	fe842783          	lw	a5,-24(s0)
    1e9c:	00f767b3          	or	a5,a4,a5
    1ea0:	fef42023          	sw	a5,-32(s0)
    1ea4:	fe442703          	lw	a4,-28(s0)
    1ea8:	fec42783          	lw	a5,-20(s0)
    1eac:	00f767b3          	or	a5,a4,a5
    1eb0:	fef42223          	sw	a5,-28(s0)
    1eb4:	fec42783          	lw	a5,-20(s0)
    1eb8:	01f79793          	slli	a5,a5,0x1f
    1ebc:	fe842703          	lw	a4,-24(s0)
    1ec0:	00175713          	srli	a4,a4,0x1
    1ec4:	00f767b3          	or	a5,a4,a5
    1ec8:	fef42423          	sw	a5,-24(s0)
    1ecc:	fec42783          	lw	a5,-20(s0)
    1ed0:	4017d793          	srai	a5,a5,0x1
    1ed4:	fef42623          	sw	a5,-20(s0)
    1ed8:	fd442783          	lw	a5,-44(s0)
    1edc:	4017d793          	srai	a5,a5,0x1
    1ee0:	fcf42a23          	sw	a5,-44(s0)
    1ee4:	fe842783          	lw	a5,-24(s0)
    1ee8:	fec42703          	lw	a4,-20(s0)
    1eec:	00e7e7b3          	or	a5,a5,a4
    1ef0:	f2079ce3          	bnez	a5,1e28 <_long_modsi3+0xbc>
    1ef4:	fd842703          	lw	a4,-40(s0)
    1ef8:	fdc42783          	lw	a5,-36(s0)
    1efc:	00070513          	mv	a0,a4
    1f00:	00078593          	mv	a1,a5
    1f04:	02c12403          	lw	s0,44(sp)
    1f08:	03010113          	addi	sp,sp,48
    1f0c:	00008067          	ret

00001f10 <swap>:
    1f10:	fd010113          	addi	sp,sp,-48
    1f14:	02812623          	sw	s0,44(sp)
    1f18:	03010413          	addi	s0,sp,48
    1f1c:	fca42e23          	sw	a0,-36(s0)
    1f20:	fcb42c23          	sw	a1,-40(s0)
    1f24:	fdc42783          	lw	a5,-36(s0)
    1f28:	0007a783          	lw	a5,0(a5)
    1f2c:	fef42623          	sw	a5,-20(s0)
    1f30:	fd842783          	lw	a5,-40(s0)
    1f34:	0007a703          	lw	a4,0(a5)
    1f38:	fdc42783          	lw	a5,-36(s0)
    1f3c:	00e7a023          	sw	a4,0(a5)
    1f40:	fd842783          	lw	a5,-40(s0)
    1f44:	fec42703          	lw	a4,-20(s0)
    1f48:	00e7a023          	sw	a4,0(a5)
    1f4c:	00000013          	nop
    1f50:	02c12403          	lw	s0,44(sp)
    1f54:	03010113          	addi	sp,sp,48
    1f58:	00008067          	ret

00001f5c <bubble_sort>:
    1f5c:	fd010113          	addi	sp,sp,-48
    1f60:	02112623          	sw	ra,44(sp)
    1f64:	02812423          	sw	s0,40(sp)
    1f68:	03010413          	addi	s0,sp,48
    1f6c:	fca42e23          	sw	a0,-36(s0)
    1f70:	fcb42c23          	sw	a1,-40(s0)
    1f74:	fe042623          	sw	zero,-20(s0)
    1f78:	09c0006f          	j	2014 <bubble_sort+0xb8>
    1f7c:	fe042423          	sw	zero,-24(s0)
    1f80:	0700006f          	j	1ff0 <bubble_sort+0x94>
    1f84:	fe842783          	lw	a5,-24(s0)
    1f88:	00279793          	slli	a5,a5,0x2
    1f8c:	fdc42703          	lw	a4,-36(s0)
    1f90:	00f707b3          	add	a5,a4,a5
    1f94:	0007a703          	lw	a4,0(a5)
    1f98:	fe842783          	lw	a5,-24(s0)
    1f9c:	00178793          	addi	a5,a5,1
    1fa0:	00279793          	slli	a5,a5,0x2
    1fa4:	fdc42683          	lw	a3,-36(s0)
    1fa8:	00f687b3          	add	a5,a3,a5
    1fac:	0007a783          	lw	a5,0(a5)
    1fb0:	02e7da63          	bge	a5,a4,1fe4 <bubble_sort+0x88>
    1fb4:	fe842783          	lw	a5,-24(s0)
    1fb8:	00279793          	slli	a5,a5,0x2
    1fbc:	fdc42703          	lw	a4,-36(s0)
    1fc0:	00f706b3          	add	a3,a4,a5
    1fc4:	fe842783          	lw	a5,-24(s0)
    1fc8:	00178793          	addi	a5,a5,1
    1fcc:	00279793          	slli	a5,a5,0x2
    1fd0:	fdc42703          	lw	a4,-36(s0)
    1fd4:	00f707b3          	add	a5,a4,a5
    1fd8:	00078593          	mv	a1,a5
    1fdc:	00068513          	mv	a0,a3
    1fe0:	f31ff0ef          	jal	ra,1f10 <swap>
    1fe4:	fe842783          	lw	a5,-24(s0)
    1fe8:	00178793          	addi	a5,a5,1
    1fec:	fef42423          	sw	a5,-24(s0)
    1ff0:	fd842703          	lw	a4,-40(s0)
    1ff4:	fec42783          	lw	a5,-20(s0)
    1ff8:	40f707b3          	sub	a5,a4,a5
    1ffc:	fff78793          	addi	a5,a5,-1
    2000:	fe842703          	lw	a4,-24(s0)
    2004:	f8f740e3          	blt	a4,a5,1f84 <bubble_sort+0x28>
    2008:	fec42783          	lw	a5,-20(s0)
    200c:	00178793          	addi	a5,a5,1
    2010:	fef42623          	sw	a5,-20(s0)
    2014:	fd842783          	lw	a5,-40(s0)
    2018:	fff78793          	addi	a5,a5,-1
    201c:	fec42703          	lw	a4,-20(s0)
    2020:	f4f74ee3          	blt	a4,a5,1f7c <bubble_sort+0x20>
    2024:	00000013          	nop
    2028:	00000013          	nop
    202c:	02c12083          	lw	ra,44(sp)
    2030:	02812403          	lw	s0,40(sp)
    2034:	03010113          	addi	sp,sp,48
    2038:	00008067          	ret

0000203c <WelcomePage>:
    203c:	fe010113          	addi	sp,sp,-32
    2040:	00112e23          	sw	ra,28(sp)
    2044:	00812c23          	sw	s0,24(sp)
    2048:	02010413          	addi	s0,sp,32
    204c:	94cfe0ef          	jal	ra,198 <vga_clear>
    2050:	000fe517          	auipc	a0,0xfe
    2054:	22050513          	addi	a0,a0,544 # 100270 <_etext+0xfde94>
    2058:	e74fe0ef          	jal	ra,6cc <putstr>
    205c:	000ff517          	auipc	a0,0xff
    2060:	99050513          	addi	a0,a0,-1648 # 1009ec <auther_name>
    2064:	e68fe0ef          	jal	ra,6cc <putstr>
    2068:	000fe517          	auipc	a0,0xfe
    206c:	21050513          	addi	a0,a0,528 # 100278 <_etext+0xfde9c>
    2070:	e5cfe0ef          	jal	ra,6cc <putstr>
    2074:	000ff517          	auipc	a0,0xff
    2078:	90850513          	addi	a0,a0,-1784 # 10097c <auther_stuid>
    207c:	e50fe0ef          	jal	ra,6cc <putstr>
    2080:	00a00513          	li	a0,10
    2084:	c08fe0ef          	jal	ra,48c <putch>
    2088:	00a00513          	li	a0,10
    208c:	c00fe0ef          	jal	ra,48c <putch>
    2090:	00a00513          	li	a0,10
    2094:	bf8fe0ef          	jal	ra,48c <putch>
    2098:	000fe517          	auipc	a0,0xfe
    209c:	1f050513          	addi	a0,a0,496 # 100288 <_etext+0xfdeac>
    20a0:	e2cfe0ef          	jal	ra,6cc <putstr>
    20a4:	000fe517          	auipc	a0,0xfe
    20a8:	22c50513          	addi	a0,a0,556 # 1002d0 <_etext+0xfdef4>
    20ac:	e20fe0ef          	jal	ra,6cc <putstr>
    20b0:	000fe517          	auipc	a0,0xfe
    20b4:	26850513          	addi	a0,a0,616 # 100318 <_etext+0xfdf3c>
    20b8:	e14fe0ef          	jal	ra,6cc <putstr>
    20bc:	000fe517          	auipc	a0,0xfe
    20c0:	2a450513          	addi	a0,a0,676 # 100360 <_etext+0xfdf84>
    20c4:	e08fe0ef          	jal	ra,6cc <putstr>
    20c8:	000fe517          	auipc	a0,0xfe
    20cc:	2e050513          	addi	a0,a0,736 # 1003a8 <_etext+0xfdfcc>
    20d0:	dfcfe0ef          	jal	ra,6cc <putstr>
    20d4:	00a00513          	li	a0,10
    20d8:	bb4fe0ef          	jal	ra,48c <putch>
    20dc:	00a00513          	li	a0,10
    20e0:	bacfe0ef          	jal	ra,48c <putch>
    20e4:	00a00513          	li	a0,10
    20e8:	ba4fe0ef          	jal	ra,48c <putch>
    20ec:	000fe517          	auipc	a0,0xfe
    20f0:	30450513          	addi	a0,a0,772 # 1003f0 <_etext+0xfe014>
    20f4:	dd8fe0ef          	jal	ra,6cc <putstr>
    20f8:	000fe517          	auipc	a0,0xfe
    20fc:	33c50513          	addi	a0,a0,828 # 100434 <_etext+0xfe058>
    2100:	dccfe0ef          	jal	ra,6cc <putstr>
    2104:	000fe517          	auipc	a0,0xfe
    2108:	37450513          	addi	a0,a0,884 # 100478 <_etext+0xfe09c>
    210c:	dc0fe0ef          	jal	ra,6cc <putstr>
    2110:	000fe517          	auipc	a0,0xfe
    2114:	3ac50513          	addi	a0,a0,940 # 1004bc <_etext+0xfe0e0>
    2118:	db4fe0ef          	jal	ra,6cc <putstr>
    211c:	000fe517          	auipc	a0,0xfe
    2120:	3e450513          	addi	a0,a0,996 # 100500 <_etext+0xfe124>
    2124:	da8fe0ef          	jal	ra,6cc <putstr>
    2128:	00a00513          	li	a0,10
    212c:	b60fe0ef          	jal	ra,48c <putch>
    2130:	00a00513          	li	a0,10
    2134:	b58fe0ef          	jal	ra,48c <putch>
    2138:	00a00513          	li	a0,10
    213c:	b50fe0ef          	jal	ra,48c <putch>
    2140:	000fe517          	auipc	a0,0xfe
    2144:	40450513          	addi	a0,a0,1028 # 100544 <_etext+0xfe168>
    2148:	d84fe0ef          	jal	ra,6cc <putstr>
    214c:	de0fe0ef          	jal	ra,72c <getch>
    2150:	00050793          	mv	a5,a0
    2154:	fef407a3          	sb	a5,-17(s0)
    2158:	fef44783          	lbu	a5,-17(s0)
    215c:	00078513          	mv	a0,a5
    2160:	01c12083          	lw	ra,28(sp)
    2164:	01812403          	lw	s0,24(sp)
    2168:	02010113          	addi	sp,sp,32
    216c:	00008067          	ret

00002170 <deal_com>:
    2170:	fd010113          	addi	sp,sp,-48
    2174:	02112623          	sw	ra,44(sp)
    2178:	02812423          	sw	s0,40(sp)
    217c:	03010413          	addi	s0,sp,48
    2180:	fca42e23          	sw	a0,-36(s0)
    2184:	fe042623          	sw	zero,-20(s0)
    2188:	000ff597          	auipc	a1,0xff
    218c:	86858593          	addi	a1,a1,-1944 # 1009f0 <command>
    2190:	000ff517          	auipc	a0,0xff
    2194:	82850513          	addi	a0,a0,-2008 # 1009b8 <comhello>
    2198:	915fe0ef          	jal	ra,aac <strcmp>
    219c:	00050793          	mv	a5,a0
    21a0:	02079063          	bnez	a5,21c0 <deal_com+0x50>
    21a4:	fec42783          	lw	a5,-20(s0)
    21a8:	00178793          	addi	a5,a5,1
    21ac:	fef42623          	sw	a5,-20(s0)
    21b0:	000fe517          	auipc	a0,0xfe
    21b4:	7b050513          	addi	a0,a0,1968 # 100960 <hellofun>
    21b8:	d14fe0ef          	jal	ra,6cc <putstr>
    21bc:	1240006f          	j	22e0 <deal_com+0x170>
    21c0:	fdc42583          	lw	a1,-36(s0)
    21c4:	000fe517          	auipc	a0,0xfe
    21c8:	7fc50513          	addi	a0,a0,2044 # 1009c0 <comclear>
    21cc:	8e1fe0ef          	jal	ra,aac <strcmp>
    21d0:	00050793          	mv	a5,a0
    21d4:	00079c63          	bnez	a5,21ec <deal_com+0x7c>
    21d8:	fec42783          	lw	a5,-20(s0)
    21dc:	00178793          	addi	a5,a5,1
    21e0:	fef42623          	sw	a5,-20(s0)
    21e4:	824fe0ef          	jal	ra,208 <vga_init>
    21e8:	0f80006f          	j	22e0 <deal_com+0x170>
    21ec:	fdc42583          	lw	a1,-36(s0)
    21f0:	000fe517          	auipc	a0,0xfe
    21f4:	7dc50513          	addi	a0,a0,2012 # 1009cc <comsort>
    21f8:	8b5fe0ef          	jal	ra,aac <strcmp>
    21fc:	00050793          	mv	a5,a0
    2200:	00079c63          	bnez	a5,2218 <deal_com+0xa8>
    2204:	fec42783          	lw	a5,-20(s0)
    2208:	00178793          	addi	a5,a5,1
    220c:	fef42623          	sw	a5,-20(s0)
    2210:	e35fe0ef          	jal	ra,1044 <sort>
    2214:	0cc0006f          	j	22e0 <deal_com+0x170>
    2218:	fdc42583          	lw	a1,-36(s0)
    221c:	000fe517          	auipc	a0,0xfe
    2220:	7b850513          	addi	a0,a0,1976 # 1009d4 <comhelp>
    2224:	889fe0ef          	jal	ra,aac <strcmp>
    2228:	00050793          	mv	a5,a0
    222c:	00079c63          	bnez	a5,2244 <deal_com+0xd4>
    2230:	fec42783          	lw	a5,-20(s0)
    2234:	00178793          	addi	a5,a5,1
    2238:	fef42623          	sw	a5,-20(s0)
    223c:	fedfe0ef          	jal	ra,1228 <help>
    2240:	0a00006f          	j	22e0 <deal_com+0x170>
    2244:	fdc42583          	lw	a1,-36(s0)
    2248:	000fe517          	auipc	a0,0xfe
    224c:	79450513          	addi	a0,a0,1940 # 1009dc <comtimer>
    2250:	85dfe0ef          	jal	ra,aac <strcmp>
    2254:	00050793          	mv	a5,a0
    2258:	00079c63          	bnez	a5,2270 <deal_com+0x100>
    225c:	fec42783          	lw	a5,-20(s0)
    2260:	00178793          	addi	a5,a5,1
    2264:	fef42623          	sw	a5,-20(s0)
    2268:	910ff0ef          	jal	ra,1378 <time>
    226c:	0740006f          	j	22e0 <deal_com+0x170>
    2270:	fdc42503          	lw	a0,-36(s0)
    2274:	a00ff0ef          	jal	ra,1474 <match_fib>
    2278:	00050793          	mv	a5,a0
    227c:	02078463          	beqz	a5,22a4 <deal_com+0x134>
    2280:	fdc42503          	lw	a0,-36(s0)
    2284:	9f0ff0ef          	jal	ra,1474 <match_fib>
    2288:	00050793          	mv	a5,a0
    228c:	00078513          	mv	a0,a5
    2290:	b20ff0ef          	jal	ra,15b0 <fib>
    2294:	fec42783          	lw	a5,-20(s0)
    2298:	00178793          	addi	a5,a5,1
    229c:	fef42623          	sw	a5,-20(s0)
    22a0:	0400006f          	j	22e0 <deal_com+0x170>
    22a4:	fdc42583          	lw	a1,-36(s0)
    22a8:	000fe517          	auipc	a0,0xfe
    22ac:	73c50513          	addi	a0,a0,1852 # 1009e4 <comguess>
    22b0:	ffcfe0ef          	jal	ra,aac <strcmp>
    22b4:	00050793          	mv	a5,a0
    22b8:	00079c63          	bnez	a5,22d0 <deal_com+0x160>
    22bc:	fec42783          	lw	a5,-20(s0)
    22c0:	00178793          	addi	a5,a5,1
    22c4:	fef42623          	sw	a5,-20(s0)
    22c8:	c48ff0ef          	jal	ra,1710 <playGuessNumberGame>
    22cc:	0140006f          	j	22e0 <deal_com+0x170>
    22d0:	000fe797          	auipc	a5,0xfe
    22d4:	7e878793          	addi	a5,a5,2024 # 100ab8 <cnt>
    22d8:	0007a783          	lw	a5,0(a5)
    22dc:	00078e63          	beqz	a5,22f8 <deal_com+0x188>
    22e0:	fec42783          	lw	a5,-20(s0)
    22e4:	00079e63          	bnez	a5,2300 <deal_com+0x190>
    22e8:	000fe517          	auipc	a0,0xfe
    22ec:	27850513          	addi	a0,a0,632 # 100560 <_etext+0xfe184>
    22f0:	bdcfe0ef          	jal	ra,6cc <putstr>
    22f4:	00c0006f          	j	2300 <deal_com+0x190>
    22f8:	00000013          	nop
    22fc:	0080006f          	j	2304 <deal_com+0x194>
    2300:	00000013          	nop
    2304:	02c12083          	lw	ra,44(sp)
    2308:	02812403          	lw	s0,40(sp)
    230c:	03010113          	addi	sp,sp,48
    2310:	00008067          	ret

00002314 <foo>:
    2314:	ff010113          	addi	sp,sp,-16
    2318:	00112623          	sw	ra,12(sp)
    231c:	00812423          	sw	s0,8(sp)
    2320:	01010413          	addi	s0,sp,16
    2324:	000fe517          	auipc	a0,0xfe
    2328:	25050513          	addi	a0,a0,592 # 100574 <_etext+0xfe198>
    232c:	ba0fe0ef          	jal	ra,6cc <putstr>
    2330:	000fe517          	auipc	a0,0xfe
    2334:	29050513          	addi	a0,a0,656 # 1005c0 <_etext+0xfe1e4>
    2338:	b94fe0ef          	jal	ra,6cc <putstr>
    233c:	000fe517          	auipc	a0,0xfe
    2340:	2d050513          	addi	a0,a0,720 # 10060c <_etext+0xfe230>
    2344:	b88fe0ef          	jal	ra,6cc <putstr>
    2348:	000fe517          	auipc	a0,0xfe
    234c:	31050513          	addi	a0,a0,784 # 100658 <_etext+0xfe27c>
    2350:	b7cfe0ef          	jal	ra,6cc <putstr>
    2354:	000fe517          	auipc	a0,0xfe
    2358:	35050513          	addi	a0,a0,848 # 1006a4 <_etext+0xfe2c8>
    235c:	b70fe0ef          	jal	ra,6cc <putstr>
    2360:	000fe517          	auipc	a0,0xfe
    2364:	39050513          	addi	a0,a0,912 # 1006f0 <_etext+0xfe314>
    2368:	b64fe0ef          	jal	ra,6cc <putstr>
    236c:	000fe517          	auipc	a0,0xfe
    2370:	3d050513          	addi	a0,a0,976 # 10073c <_etext+0xfe360>
    2374:	b58fe0ef          	jal	ra,6cc <putstr>
    2378:	000fe517          	auipc	a0,0xfe
    237c:	41050513          	addi	a0,a0,1040 # 100788 <_etext+0xfe3ac>
    2380:	b4cfe0ef          	jal	ra,6cc <putstr>
    2384:	000fe517          	auipc	a0,0xfe
    2388:	45050513          	addi	a0,a0,1104 # 1007d4 <_etext+0xfe3f8>
    238c:	b40fe0ef          	jal	ra,6cc <putstr>
    2390:	000fe517          	auipc	a0,0xfe
    2394:	49050513          	addi	a0,a0,1168 # 100820 <_etext+0xfe444>
    2398:	b34fe0ef          	jal	ra,6cc <putstr>
    239c:	000fe517          	auipc	a0,0xfe
    23a0:	4d050513          	addi	a0,a0,1232 # 10086c <_etext+0xfe490>
    23a4:	b28fe0ef          	jal	ra,6cc <putstr>
    23a8:	000fe517          	auipc	a0,0xfe
    23ac:	51050513          	addi	a0,a0,1296 # 1008b8 <_etext+0xfe4dc>
    23b0:	b1cfe0ef          	jal	ra,6cc <putstr>
    23b4:	000fe517          	auipc	a0,0xfe
    23b8:	55050513          	addi	a0,a0,1360 # 100904 <_etext+0xfe528>
    23bc:	b10fe0ef          	jal	ra,6cc <putstr>
    23c0:	00000513          	li	a0,0
    23c4:	f9cfe0ef          	jal	ra,b60 <quit>
    23c8:	00000013          	nop
    23cc:	00c12083          	lw	ra,12(sp)
    23d0:	00812403          	lw	s0,8(sp)
    23d4:	01010113          	addi	sp,sp,16
    23d8:	00008067          	ret
